
PE_Drivers.elf:     file format elf32-avr

Sections:
Idx Name          Size      VMA       LMA       File off  Algn
  0 .text         0000128c  00000000  00000000  00000094  2**1
                  CONTENTS, ALLOC, LOAD, READONLY, CODE
  1 .data         0000001a  00800060  0000128c  00001320  2**0
                  CONTENTS, ALLOC, LOAD, DATA
  2 .bss          0000002a  0080007a  0080007a  0000133a  2**0
                  ALLOC

Disassembly of section .text:

00000000 <__vectors>:
       0:	0c 94 2a 00 	jmp	0x54	; 0x54 <__ctors_end>
       4:	0c 94 47 00 	jmp	0x8e	; 0x8e <__bad_interrupt>
       8:	0c 94 47 00 	jmp	0x8e	; 0x8e <__bad_interrupt>
       c:	0c 94 47 00 	jmp	0x8e	; 0x8e <__bad_interrupt>
      10:	0c 94 4b 03 	jmp	0x696	; 0x696 <__vector_4>
      14:	0c 94 72 03 	jmp	0x6e4	; 0x6e4 <__vector_5>
      18:	0c 94 af 02 	jmp	0x55e	; 0x55e <__vector_6>
      1c:	0c 94 d6 02 	jmp	0x5ac	; 0x5ac <__vector_7>
      20:	0c 94 fd 02 	jmp	0x5fa	; 0x5fa <__vector_8>
      24:	0c 94 24 03 	jmp	0x648	; 0x648 <__vector_9>
      28:	0c 94 72 02 	jmp	0x4e4	; 0x4e4 <__vector_10>
      2c:	0c 94 35 02 	jmp	0x46a	; 0x46a <__vector_11>
      30:	0c 94 47 00 	jmp	0x8e	; 0x8e <__bad_interrupt>
      34:	0c 94 47 00 	jmp	0x8e	; 0x8e <__bad_interrupt>
      38:	0c 94 47 00 	jmp	0x8e	; 0x8e <__bad_interrupt>
      3c:	0c 94 47 00 	jmp	0x8e	; 0x8e <__bad_interrupt>
      40:	0c 94 47 00 	jmp	0x8e	; 0x8e <__bad_interrupt>
      44:	0c 94 47 00 	jmp	0x8e	; 0x8e <__bad_interrupt>
      48:	0c 94 47 00 	jmp	0x8e	; 0x8e <__bad_interrupt>
      4c:	0c 94 47 00 	jmp	0x8e	; 0x8e <__bad_interrupt>
      50:	0c 94 47 00 	jmp	0x8e	; 0x8e <__bad_interrupt>

00000054 <__ctors_end>:
      54:	11 24       	eor	r1, r1
      56:	1f be       	out	0x3f, r1	; 63
      58:	cf e5       	ldi	r28, 0x5F	; 95
      5a:	d8 e0       	ldi	r29, 0x08	; 8
      5c:	de bf       	out	0x3e, r29	; 62
      5e:	cd bf       	out	0x3d, r28	; 61

00000060 <__do_copy_data>:
      60:	10 e0       	ldi	r17, 0x00	; 0
      62:	a0 e6       	ldi	r26, 0x60	; 96
      64:	b0 e0       	ldi	r27, 0x00	; 0
      66:	ec e8       	ldi	r30, 0x8C	; 140
      68:	f2 e1       	ldi	r31, 0x12	; 18
      6a:	02 c0       	rjmp	.+4      	; 0x70 <.do_copy_data_start>

0000006c <.do_copy_data_loop>:
      6c:	05 90       	lpm	r0, Z+
      6e:	0d 92       	st	X+, r0

00000070 <.do_copy_data_start>:
      70:	aa 37       	cpi	r26, 0x7A	; 122
      72:	b1 07       	cpc	r27, r17
      74:	d9 f7       	brne	.-10     	; 0x6c <.do_copy_data_loop>

00000076 <__do_clear_bss>:
      76:	10 e0       	ldi	r17, 0x00	; 0
      78:	aa e7       	ldi	r26, 0x7A	; 122
      7a:	b0 e0       	ldi	r27, 0x00	; 0
      7c:	01 c0       	rjmp	.+2      	; 0x80 <.do_clear_bss_start>

0000007e <.do_clear_bss_loop>:
      7e:	1d 92       	st	X+, r1

00000080 <.do_clear_bss_start>:
      80:	a4 3a       	cpi	r26, 0xA4	; 164
      82:	b1 07       	cpc	r27, r17
      84:	e1 f7       	brne	.-8      	; 0x7e <.do_clear_bss_loop>
      86:	0e 94 d2 08 	call	0x11a4	; 0x11a4 <main>
      8a:	0c 94 44 09 	jmp	0x1288	; 0x1288 <_exit>

0000008e <__bad_interrupt>:
      8e:	0c 94 00 00 	jmp	0	; 0x0 <__vectors>

00000092 <MTIMER0_vInit>:
      92:	83 b7       	in	r24, 0x33	; 51
      94:	8f 77       	andi	r24, 0x7F	; 127
      96:	83 bf       	out	0x33, r24	; 51
      98:	83 b7       	in	r24, 0x33	; 51
      9a:	80 64       	ori	r24, 0x40	; 64
      9c:	83 bf       	out	0x33, r24	; 51
      9e:	83 b7       	in	r24, 0x33	; 51
      a0:	88 60       	ori	r24, 0x08	; 8
      a2:	83 bf       	out	0x33, r24	; 51
      a4:	83 b7       	in	r24, 0x33	; 51
      a6:	8e 7f       	andi	r24, 0xFE	; 254
      a8:	83 bf       	out	0x33, r24	; 51
      aa:	83 b7       	in	r24, 0x33	; 51
      ac:	8d 7f       	andi	r24, 0xFD	; 253
      ae:	83 bf       	out	0x33, r24	; 51
      b0:	83 b7       	in	r24, 0x33	; 51
      b2:	8b 7f       	andi	r24, 0xFB	; 251
      b4:	83 bf       	out	0x33, r24	; 51
      b6:	83 b7       	in	r24, 0x33	; 51
      b8:	8f 7e       	andi	r24, 0xEF	; 239
      ba:	83 bf       	out	0x33, r24	; 51
      bc:	83 b7       	in	r24, 0x33	; 51
      be:	80 62       	ori	r24, 0x20	; 32
      c0:	83 bf       	out	0x33, r24	; 51
      c2:	08 95       	ret

000000c4 <MTIMER1_vInit>:
      c4:	8f b5       	in	r24, 0x2f	; 47
      c6:	87 7f       	andi	r24, 0xF7	; 247
      c8:	8f bd       	out	0x2f, r24	; 47
      ca:	8f b5       	in	r24, 0x2f	; 47
      cc:	8b 7f       	andi	r24, 0xFB	; 251
      ce:	8f bd       	out	0x2f, r24	; 47
      d0:	8f b5       	in	r24, 0x2f	; 47
      d2:	8f 77       	andi	r24, 0x7F	; 127
      d4:	8f bd       	out	0x2f, r24	; 47
      d6:	8f b5       	in	r24, 0x2f	; 47
      d8:	8f 7b       	andi	r24, 0xBF	; 191
      da:	8f bd       	out	0x2f, r24	; 47
      dc:	8f b5       	in	r24, 0x2f	; 47
      de:	8f 7d       	andi	r24, 0xDF	; 223
      e0:	8f bd       	out	0x2f, r24	; 47
      e2:	8f b5       	in	r24, 0x2f	; 47
      e4:	8f 7e       	andi	r24, 0xEF	; 239
      e6:	8f bd       	out	0x2f, r24	; 47
      e8:	8f b5       	in	r24, 0x2f	; 47
      ea:	8e 7f       	andi	r24, 0xFE	; 254
      ec:	8f bd       	out	0x2f, r24	; 47
      ee:	8f b5       	in	r24, 0x2f	; 47
      f0:	8d 7f       	andi	r24, 0xFD	; 253
      f2:	8f bd       	out	0x2f, r24	; 47
      f4:	8e b5       	in	r24, 0x2e	; 46
      f6:	87 7f       	andi	r24, 0xF7	; 247
      f8:	8e bd       	out	0x2e, r24	; 46
      fa:	8e b5       	in	r24, 0x2e	; 46
      fc:	8f 7e       	andi	r24, 0xEF	; 239
      fe:	8e bd       	out	0x2e, r24	; 46
     100:	8e b5       	in	r24, 0x2e	; 46
     102:	8e 7f       	andi	r24, 0xFE	; 254
     104:	8e bd       	out	0x2e, r24	; 46
     106:	8e b5       	in	r24, 0x2e	; 46
     108:	8d 7f       	andi	r24, 0xFD	; 253
     10a:	8e bd       	out	0x2e, r24	; 46
     10c:	8e b5       	in	r24, 0x2e	; 46
     10e:	8b 7f       	andi	r24, 0xFB	; 251
     110:	8e bd       	out	0x2e, r24	; 46
     112:	8e b5       	in	r24, 0x2e	; 46
     114:	80 68       	ori	r24, 0x80	; 128
     116:	8e bd       	out	0x2e, r24	; 46
     118:	8e b5       	in	r24, 0x2e	; 46
     11a:	80 64       	ori	r24, 0x40	; 64
     11c:	8e bd       	out	0x2e, r24	; 46
     11e:	08 95       	ret

00000120 <MTIMER2_vInit>:
     120:	85 b5       	in	r24, 0x25	; 37
     122:	8f 77       	andi	r24, 0x7F	; 127
     124:	85 bd       	out	0x25, r24	; 37
     126:	85 b5       	in	r24, 0x25	; 37
     128:	80 64       	ori	r24, 0x40	; 64
     12a:	85 bd       	out	0x25, r24	; 37
     12c:	85 b5       	in	r24, 0x25	; 37
     12e:	88 60       	ori	r24, 0x08	; 8
     130:	85 bd       	out	0x25, r24	; 37
     132:	85 b5       	in	r24, 0x25	; 37
     134:	8f 7e       	andi	r24, 0xEF	; 239
     136:	85 bd       	out	0x25, r24	; 37
     138:	85 b5       	in	r24, 0x25	; 37
     13a:	80 62       	ori	r24, 0x20	; 32
     13c:	85 bd       	out	0x25, r24	; 37
     13e:	82 b5       	in	r24, 0x22	; 34
     140:	87 7f       	andi	r24, 0xF7	; 247
     142:	82 bd       	out	0x22, r24	; 34
     144:	08 95       	ret

00000146 <MTIMERS_vSetPreloadValue>:
     146:	82 30       	cpi	r24, 0x02	; 2
     148:	31 f0       	breq	.+12     	; 0x156 <MTIMERS_vSetPreloadValue+0x10>
     14a:	83 30       	cpi	r24, 0x03	; 3
     14c:	39 f0       	breq	.+14     	; 0x15c <MTIMERS_vSetPreloadValue+0x16>
     14e:	81 30       	cpi	r24, 0x01	; 1
     150:	31 f4       	brne	.+12     	; 0x15e <MTIMERS_vSetPreloadValue+0x18>
     152:	62 bf       	out	0x32, r22	; 50
     154:	08 95       	ret
     156:	7d bd       	out	0x2d, r23	; 45
     158:	6c bd       	out	0x2c, r22	; 44
     15a:	08 95       	ret
     15c:	64 bd       	out	0x24, r22	; 36
     15e:	08 95       	ret

00000160 <MTIMERS_vSetCompareValue>:
     160:	82 30       	cpi	r24, 0x02	; 2
     162:	31 f0       	breq	.+12     	; 0x170 <MTIMERS_vSetCompareValue+0x10>
     164:	83 30       	cpi	r24, 0x03	; 3
     166:	39 f0       	breq	.+14     	; 0x176 <MTIMERS_vSetCompareValue+0x16>
     168:	81 30       	cpi	r24, 0x01	; 1
     16a:	31 f4       	brne	.+12     	; 0x178 <MTIMERS_vSetCompareValue+0x18>
     16c:	6c bf       	out	0x3c, r22	; 60
     16e:	08 95       	ret
     170:	7b bd       	out	0x2b, r23	; 43
     172:	6a bd       	out	0x2a, r22	; 42
     174:	08 95       	ret
     176:	63 bd       	out	0x23, r22	; 35
     178:	08 95       	ret

0000017a <MTIMER1_vSetTopValue>:
     17a:	97 bd       	out	0x27, r25	; 39
     17c:	86 bd       	out	0x26, r24	; 38
     17e:	08 95       	ret

00000180 <MTIMERS_vStartTimer>:
     180:	82 30       	cpi	r24, 0x02	; 2
     182:	71 f0       	breq	.+28     	; 0x1a0 <MTIMERS_vStartTimer+0x20>
     184:	83 30       	cpi	r24, 0x03	; 3
     186:	b1 f0       	breq	.+44     	; 0x1b4 <MTIMERS_vStartTimer+0x34>
     188:	81 30       	cpi	r24, 0x01	; 1
     18a:	e9 f4       	brne	.+58     	; 0x1c6 <MTIMERS_vStartTimer+0x46>
     18c:	83 b7       	in	r24, 0x33	; 51
     18e:	8e 7f       	andi	r24, 0xFE	; 254
     190:	83 bf       	out	0x33, r24	; 51
     192:	83 b7       	in	r24, 0x33	; 51
     194:	8d 7f       	andi	r24, 0xFD	; 253
     196:	83 bf       	out	0x33, r24	; 51
     198:	83 b7       	in	r24, 0x33	; 51
     19a:	8b 7f       	andi	r24, 0xFB	; 251
     19c:	83 bf       	out	0x33, r24	; 51
     19e:	08 95       	ret
     1a0:	8e b5       	in	r24, 0x2e	; 46
     1a2:	8e 7f       	andi	r24, 0xFE	; 254
     1a4:	8e bd       	out	0x2e, r24	; 46
     1a6:	8e b5       	in	r24, 0x2e	; 46
     1a8:	8d 7f       	andi	r24, 0xFD	; 253
     1aa:	8e bd       	out	0x2e, r24	; 46
     1ac:	8e b5       	in	r24, 0x2e	; 46
     1ae:	8b 7f       	andi	r24, 0xFB	; 251
     1b0:	8e bd       	out	0x2e, r24	; 46
     1b2:	08 95       	ret
     1b4:	85 b5       	in	r24, 0x25	; 37
     1b6:	8e 7f       	andi	r24, 0xFE	; 254
     1b8:	85 bd       	out	0x25, r24	; 37
     1ba:	85 b5       	in	r24, 0x25	; 37
     1bc:	8d 7f       	andi	r24, 0xFD	; 253
     1be:	85 bd       	out	0x25, r24	; 37
     1c0:	85 b5       	in	r24, 0x25	; 37
     1c2:	8b 7f       	andi	r24, 0xFB	; 251
     1c4:	85 bd       	out	0x25, r24	; 37
     1c6:	08 95       	ret

000001c8 <MTIMERS_vSetInterval_CTC_Asynch>:
     1c8:	82 30       	cpi	r24, 0x02	; 2
     1ca:	89 f0       	breq	.+34     	; 0x1ee <MTIMERS_vSetInterval_CTC_Asynch+0x26>
     1cc:	83 30       	cpi	r24, 0x03	; 3
     1ce:	f1 f0       	breq	.+60     	; 0x20c <MTIMERS_vSetInterval_CTC_Asynch+0x44>
     1d0:	81 30       	cpi	r24, 0x01	; 1
     1d2:	51 f5       	brne	.+84     	; 0x228 <MTIMERS_vSetInterval_CTC_Asynch+0x60>
     1d4:	50 93 7b 00 	sts	0x007B, r21
     1d8:	40 93 7a 00 	sts	0x007A, r20
     1dc:	30 93 8b 00 	sts	0x008B, r19
     1e0:	20 93 8a 00 	sts	0x008A, r18
     1e4:	81 e0       	ldi	r24, 0x01	; 1
     1e6:	0e 94 b0 00 	call	0x160	; 0x160 <MTIMERS_vSetCompareValue>
     1ea:	81 e0       	ldi	r24, 0x01	; 1
     1ec:	0c c0       	rjmp	.+24     	; 0x206 <MTIMERS_vSetInterval_CTC_Asynch+0x3e>
     1ee:	50 93 7b 00 	sts	0x007B, r21
     1f2:	40 93 7a 00 	sts	0x007A, r20
     1f6:	30 93 83 00 	sts	0x0083, r19
     1fa:	20 93 82 00 	sts	0x0082, r18
     1fe:	82 e0       	ldi	r24, 0x02	; 2
     200:	0e 94 b0 00 	call	0x160	; 0x160 <MTIMERS_vSetCompareValue>
     204:	82 e0       	ldi	r24, 0x02	; 2
     206:	0e 94 c0 00 	call	0x180	; 0x180 <MTIMERS_vStartTimer>
     20a:	08 95       	ret
     20c:	50 93 7b 00 	sts	0x007B, r21
     210:	40 93 7a 00 	sts	0x007A, r20
     214:	30 93 7f 00 	sts	0x007F, r19
     218:	20 93 7e 00 	sts	0x007E, r18
     21c:	83 e0       	ldi	r24, 0x03	; 3
     21e:	0e 94 b0 00 	call	0x160	; 0x160 <MTIMERS_vSetCompareValue>
     222:	83 e0       	ldi	r24, 0x03	; 3
     224:	0e 94 c0 00 	call	0x180	; 0x180 <MTIMERS_vStartTimer>
     228:	08 95       	ret

0000022a <MTIMERS_vSetInterval_OVF_Asynch>:
     22a:	82 30       	cpi	r24, 0x02	; 2
     22c:	71 f0       	breq	.+28     	; 0x24a <MTIMERS_vSetInterval_OVF_Asynch+0x20>
     22e:	83 30       	cpi	r24, 0x03	; 3
     230:	c1 f0       	breq	.+48     	; 0x262 <MTIMERS_vSetInterval_OVF_Asynch+0x38>
     232:	81 30       	cpi	r24, 0x01	; 1
     234:	09 f5       	brne	.+66     	; 0x278 <MTIMERS_vSetInterval_OVF_Asynch+0x4e>
     236:	70 93 7b 00 	sts	0x007B, r23
     23a:	60 93 7a 00 	sts	0x007A, r22
     23e:	50 93 89 00 	sts	0x0089, r21
     242:	40 93 88 00 	sts	0x0088, r20
     246:	81 e0       	ldi	r24, 0x01	; 1
     248:	09 c0       	rjmp	.+18     	; 0x25c <MTIMERS_vSetInterval_OVF_Asynch+0x32>
     24a:	70 93 7b 00 	sts	0x007B, r23
     24e:	60 93 7a 00 	sts	0x007A, r22
     252:	50 93 87 00 	sts	0x0087, r21
     256:	40 93 86 00 	sts	0x0086, r20
     25a:	82 e0       	ldi	r24, 0x02	; 2
     25c:	0e 94 c0 00 	call	0x180	; 0x180 <MTIMERS_vStartTimer>
     260:	08 95       	ret
     262:	70 93 7b 00 	sts	0x007B, r23
     266:	60 93 7a 00 	sts	0x007A, r22
     26a:	50 93 7d 00 	sts	0x007D, r21
     26e:	40 93 7c 00 	sts	0x007C, r20
     272:	83 e0       	ldi	r24, 0x03	; 3
     274:	0e 94 c0 00 	call	0x180	; 0x180 <MTIMERS_vStartTimer>
     278:	08 95       	ret

0000027a <MTIMERS_vStopTimer>:
     27a:	82 30       	cpi	r24, 0x02	; 2
     27c:	71 f0       	breq	.+28     	; 0x29a <MTIMERS_vStopTimer+0x20>
     27e:	83 30       	cpi	r24, 0x03	; 3
     280:	b1 f0       	breq	.+44     	; 0x2ae <MTIMERS_vStopTimer+0x34>
     282:	81 30       	cpi	r24, 0x01	; 1
     284:	e9 f4       	brne	.+58     	; 0x2c0 <MTIMERS_vStopTimer+0x46>
     286:	83 b7       	in	r24, 0x33	; 51
     288:	8e 7f       	andi	r24, 0xFE	; 254
     28a:	83 bf       	out	0x33, r24	; 51
     28c:	83 b7       	in	r24, 0x33	; 51
     28e:	8d 7f       	andi	r24, 0xFD	; 253
     290:	83 bf       	out	0x33, r24	; 51
     292:	83 b7       	in	r24, 0x33	; 51
     294:	8b 7f       	andi	r24, 0xFB	; 251
     296:	83 bf       	out	0x33, r24	; 51
     298:	08 95       	ret
     29a:	8e b5       	in	r24, 0x2e	; 46
     29c:	8e 7f       	andi	r24, 0xFE	; 254
     29e:	8e bd       	out	0x2e, r24	; 46
     2a0:	8e b5       	in	r24, 0x2e	; 46
     2a2:	8d 7f       	andi	r24, 0xFD	; 253
     2a4:	8e bd       	out	0x2e, r24	; 46
     2a6:	8e b5       	in	r24, 0x2e	; 46
     2a8:	8b 7f       	andi	r24, 0xFB	; 251
     2aa:	8e bd       	out	0x2e, r24	; 46
     2ac:	08 95       	ret
     2ae:	85 b5       	in	r24, 0x25	; 37
     2b0:	8e 7f       	andi	r24, 0xFE	; 254
     2b2:	85 bd       	out	0x25, r24	; 37
     2b4:	85 b5       	in	r24, 0x25	; 37
     2b6:	8d 7f       	andi	r24, 0xFD	; 253
     2b8:	85 bd       	out	0x25, r24	; 37
     2ba:	85 b5       	in	r24, 0x25	; 37
     2bc:	8b 7f       	andi	r24, 0xFB	; 251
     2be:	85 bd       	out	0x25, r24	; 37
     2c0:	08 95       	ret

000002c2 <MTIMERS_u16GetCapturedValue>:
     2c2:	26 b5       	in	r18, 0x26	; 38
     2c4:	37 b5       	in	r19, 0x27	; 39
     2c6:	c9 01       	movw	r24, r18
     2c8:	08 95       	ret

000002ca <MTIMERS_u16GetElapsedTime>:
     2ca:	82 30       	cpi	r24, 0x02	; 2
     2cc:	49 f0       	breq	.+18     	; 0x2e0 <MTIMERS_u16GetElapsedTime+0x16>
     2ce:	83 30       	cpi	r24, 0x03	; 3
     2d0:	51 f0       	breq	.+20     	; 0x2e6 <MTIMERS_u16GetElapsedTime+0x1c>
     2d2:	81 30       	cpi	r24, 0x01	; 1
     2d4:	19 f0       	breq	.+6      	; 0x2dc <MTIMERS_u16GetElapsedTime+0x12>
     2d6:	20 e0       	ldi	r18, 0x00	; 0
     2d8:	30 e0       	ldi	r19, 0x00	; 0
     2da:	08 c0       	rjmp	.+16     	; 0x2ec <MTIMERS_u16GetElapsedTime+0x22>
     2dc:	82 b7       	in	r24, 0x32	; 50
     2de:	04 c0       	rjmp	.+8      	; 0x2e8 <MTIMERS_u16GetElapsedTime+0x1e>
     2e0:	2c b5       	in	r18, 0x2c	; 44
     2e2:	3d b5       	in	r19, 0x2d	; 45
     2e4:	03 c0       	rjmp	.+6      	; 0x2ec <MTIMERS_u16GetElapsedTime+0x22>
     2e6:	84 b5       	in	r24, 0x24	; 36
     2e8:	28 2f       	mov	r18, r24
     2ea:	30 e0       	ldi	r19, 0x00	; 0
     2ec:	c9 01       	movw	r24, r18
     2ee:	08 95       	ret

000002f0 <MTIMERS_vSetICU_Trigger>:
     2f0:	88 23       	and	r24, r24
     2f2:	19 f0       	breq	.+6      	; 0x2fa <MTIMERS_vSetICU_Trigger+0xa>
     2f4:	81 30       	cpi	r24, 0x01	; 1
     2f6:	41 f4       	brne	.+16     	; 0x308 <MTIMERS_vSetICU_Trigger+0x18>
     2f8:	04 c0       	rjmp	.+8      	; 0x302 <MTIMERS_vSetICU_Trigger+0x12>
     2fa:	8e b5       	in	r24, 0x2e	; 46
     2fc:	8f 7b       	andi	r24, 0xBF	; 191
     2fe:	8e bd       	out	0x2e, r24	; 46
     300:	08 95       	ret
     302:	8e b5       	in	r24, 0x2e	; 46
     304:	80 64       	ori	r24, 0x40	; 64
     306:	8e bd       	out	0x2e, r24	; 46
     308:	08 95       	ret

0000030a <MTIMERS_vEnableInterrupt>:
     30a:	82 30       	cpi	r24, 0x02	; 2
     30c:	79 f0       	breq	.+30     	; 0x32c <MTIMERS_vEnableInterrupt+0x22>
     30e:	83 30       	cpi	r24, 0x03	; 3
     310:	29 f1       	breq	.+74     	; 0x35c <MTIMERS_vEnableInterrupt+0x52>
     312:	81 30       	cpi	r24, 0x01	; 1
     314:	79 f5       	brne	.+94     	; 0x374 <MTIMERS_vEnableInterrupt+0x6a>
     316:	61 30       	cpi	r22, 0x01	; 1
     318:	19 f0       	breq	.+6      	; 0x320 <MTIMERS_vEnableInterrupt+0x16>
     31a:	62 30       	cpi	r22, 0x02	; 2
     31c:	59 f5       	brne	.+86     	; 0x374 <MTIMERS_vEnableInterrupt+0x6a>
     31e:	03 c0       	rjmp	.+6      	; 0x326 <MTIMERS_vEnableInterrupt+0x1c>
     320:	89 b7       	in	r24, 0x39	; 57
     322:	81 60       	ori	r24, 0x01	; 1
     324:	22 c0       	rjmp	.+68     	; 0x36a <MTIMERS_vEnableInterrupt+0x60>
     326:	89 b7       	in	r24, 0x39	; 57
     328:	82 60       	ori	r24, 0x02	; 2
     32a:	1f c0       	rjmp	.+62     	; 0x36a <MTIMERS_vEnableInterrupt+0x60>
     32c:	62 30       	cpi	r22, 0x02	; 2
     32e:	69 f0       	breq	.+26     	; 0x34a <MTIMERS_vEnableInterrupt+0x40>
     330:	63 30       	cpi	r22, 0x03	; 3
     332:	18 f4       	brcc	.+6      	; 0x33a <MTIMERS_vEnableInterrupt+0x30>
     334:	61 30       	cpi	r22, 0x01	; 1
     336:	f1 f4       	brne	.+60     	; 0x374 <MTIMERS_vEnableInterrupt+0x6a>
     338:	05 c0       	rjmp	.+10     	; 0x344 <MTIMERS_vEnableInterrupt+0x3a>
     33a:	63 30       	cpi	r22, 0x03	; 3
     33c:	49 f0       	breq	.+18     	; 0x350 <MTIMERS_vEnableInterrupt+0x46>
     33e:	64 30       	cpi	r22, 0x04	; 4
     340:	c9 f4       	brne	.+50     	; 0x374 <MTIMERS_vEnableInterrupt+0x6a>
     342:	09 c0       	rjmp	.+18     	; 0x356 <MTIMERS_vEnableInterrupt+0x4c>
     344:	89 b7       	in	r24, 0x39	; 57
     346:	80 62       	ori	r24, 0x20	; 32
     348:	10 c0       	rjmp	.+32     	; 0x36a <MTIMERS_vEnableInterrupt+0x60>
     34a:	89 b7       	in	r24, 0x39	; 57
     34c:	80 61       	ori	r24, 0x10	; 16
     34e:	0d c0       	rjmp	.+26     	; 0x36a <MTIMERS_vEnableInterrupt+0x60>
     350:	89 b7       	in	r24, 0x39	; 57
     352:	88 60       	ori	r24, 0x08	; 8
     354:	0a c0       	rjmp	.+20     	; 0x36a <MTIMERS_vEnableInterrupt+0x60>
     356:	89 b7       	in	r24, 0x39	; 57
     358:	84 60       	ori	r24, 0x04	; 4
     35a:	07 c0       	rjmp	.+14     	; 0x36a <MTIMERS_vEnableInterrupt+0x60>
     35c:	61 30       	cpi	r22, 0x01	; 1
     35e:	19 f0       	breq	.+6      	; 0x366 <MTIMERS_vEnableInterrupt+0x5c>
     360:	62 30       	cpi	r22, 0x02	; 2
     362:	41 f4       	brne	.+16     	; 0x374 <MTIMERS_vEnableInterrupt+0x6a>
     364:	04 c0       	rjmp	.+8      	; 0x36e <MTIMERS_vEnableInterrupt+0x64>
     366:	89 b7       	in	r24, 0x39	; 57
     368:	80 64       	ori	r24, 0x40	; 64
     36a:	89 bf       	out	0x39, r24	; 57
     36c:	08 95       	ret
     36e:	89 b7       	in	r24, 0x39	; 57
     370:	80 68       	ori	r24, 0x80	; 128
     372:	89 bf       	out	0x39, r24	; 57
     374:	08 95       	ret

00000376 <MTIMERS_vDisableInterrupt>:
     376:	82 30       	cpi	r24, 0x02	; 2
     378:	79 f0       	breq	.+30     	; 0x398 <MTIMERS_vDisableInterrupt+0x22>
     37a:	83 30       	cpi	r24, 0x03	; 3
     37c:	29 f1       	breq	.+74     	; 0x3c8 <MTIMERS_vDisableInterrupt+0x52>
     37e:	81 30       	cpi	r24, 0x01	; 1
     380:	79 f5       	brne	.+94     	; 0x3e0 <MTIMERS_vDisableInterrupt+0x6a>
     382:	61 30       	cpi	r22, 0x01	; 1
     384:	19 f0       	breq	.+6      	; 0x38c <MTIMERS_vDisableInterrupt+0x16>
     386:	62 30       	cpi	r22, 0x02	; 2
     388:	59 f5       	brne	.+86     	; 0x3e0 <MTIMERS_vDisableInterrupt+0x6a>
     38a:	03 c0       	rjmp	.+6      	; 0x392 <MTIMERS_vDisableInterrupt+0x1c>
     38c:	89 b7       	in	r24, 0x39	; 57
     38e:	8e 7f       	andi	r24, 0xFE	; 254
     390:	22 c0       	rjmp	.+68     	; 0x3d6 <MTIMERS_vDisableInterrupt+0x60>
     392:	89 b7       	in	r24, 0x39	; 57
     394:	8d 7f       	andi	r24, 0xFD	; 253
     396:	1f c0       	rjmp	.+62     	; 0x3d6 <MTIMERS_vDisableInterrupt+0x60>
     398:	62 30       	cpi	r22, 0x02	; 2
     39a:	69 f0       	breq	.+26     	; 0x3b6 <MTIMERS_vDisableInterrupt+0x40>
     39c:	63 30       	cpi	r22, 0x03	; 3
     39e:	18 f4       	brcc	.+6      	; 0x3a6 <MTIMERS_vDisableInterrupt+0x30>
     3a0:	61 30       	cpi	r22, 0x01	; 1
     3a2:	f1 f4       	brne	.+60     	; 0x3e0 <MTIMERS_vDisableInterrupt+0x6a>
     3a4:	05 c0       	rjmp	.+10     	; 0x3b0 <MTIMERS_vDisableInterrupt+0x3a>
     3a6:	63 30       	cpi	r22, 0x03	; 3
     3a8:	49 f0       	breq	.+18     	; 0x3bc <MTIMERS_vDisableInterrupt+0x46>
     3aa:	64 30       	cpi	r22, 0x04	; 4
     3ac:	c9 f4       	brne	.+50     	; 0x3e0 <MTIMERS_vDisableInterrupt+0x6a>
     3ae:	09 c0       	rjmp	.+18     	; 0x3c2 <MTIMERS_vDisableInterrupt+0x4c>
     3b0:	89 b7       	in	r24, 0x39	; 57
     3b2:	8f 7d       	andi	r24, 0xDF	; 223
     3b4:	10 c0       	rjmp	.+32     	; 0x3d6 <MTIMERS_vDisableInterrupt+0x60>
     3b6:	89 b7       	in	r24, 0x39	; 57
     3b8:	8f 7e       	andi	r24, 0xEF	; 239
     3ba:	0d c0       	rjmp	.+26     	; 0x3d6 <MTIMERS_vDisableInterrupt+0x60>
     3bc:	89 b7       	in	r24, 0x39	; 57
     3be:	87 7f       	andi	r24, 0xF7	; 247
     3c0:	0a c0       	rjmp	.+20     	; 0x3d6 <MTIMERS_vDisableInterrupt+0x60>
     3c2:	89 b7       	in	r24, 0x39	; 57
     3c4:	8b 7f       	andi	r24, 0xFB	; 251
     3c6:	07 c0       	rjmp	.+14     	; 0x3d6 <MTIMERS_vDisableInterrupt+0x60>
     3c8:	61 30       	cpi	r22, 0x01	; 1
     3ca:	19 f0       	breq	.+6      	; 0x3d2 <MTIMERS_vDisableInterrupt+0x5c>
     3cc:	62 30       	cpi	r22, 0x02	; 2
     3ce:	41 f4       	brne	.+16     	; 0x3e0 <MTIMERS_vDisableInterrupt+0x6a>
     3d0:	04 c0       	rjmp	.+8      	; 0x3da <MTIMERS_vDisableInterrupt+0x64>
     3d2:	89 b7       	in	r24, 0x39	; 57
     3d4:	8f 7b       	andi	r24, 0xBF	; 191
     3d6:	89 bf       	out	0x39, r24	; 57
     3d8:	08 95       	ret
     3da:	89 b7       	in	r24, 0x39	; 57
     3dc:	8f 77       	andi	r24, 0x7F	; 127
     3de:	89 bf       	out	0x39, r24	; 57
     3e0:	08 95       	ret

000003e2 <MTIMERS_vSetCallBack>:
     3e2:	82 30       	cpi	r24, 0x02	; 2
     3e4:	99 f0       	breq	.+38     	; 0x40c <MTIMERS_vSetCallBack+0x2a>
     3e6:	83 30       	cpi	r24, 0x03	; 3
     3e8:	89 f1       	breq	.+98     	; 0x44c <MTIMERS_vSetCallBack+0x6a>
     3ea:	81 30       	cpi	r24, 0x01	; 1
     3ec:	e9 f5       	brne	.+122    	; 0x468 <MTIMERS_vSetCallBack+0x86>
     3ee:	61 30       	cpi	r22, 0x01	; 1
     3f0:	19 f0       	breq	.+6      	; 0x3f8 <MTIMERS_vSetCallBack+0x16>
     3f2:	62 30       	cpi	r22, 0x02	; 2
     3f4:	c9 f5       	brne	.+114    	; 0x468 <MTIMERS_vSetCallBack+0x86>
     3f6:	05 c0       	rjmp	.+10     	; 0x402 <MTIMERS_vSetCallBack+0x20>
     3f8:	50 93 89 00 	sts	0x0089, r21
     3fc:	40 93 88 00 	sts	0x0088, r20
     400:	08 95       	ret
     402:	50 93 8b 00 	sts	0x008B, r21
     406:	40 93 8a 00 	sts	0x008A, r20
     40a:	08 95       	ret
     40c:	62 30       	cpi	r22, 0x02	; 2
     40e:	79 f0       	breq	.+30     	; 0x42e <MTIMERS_vSetCallBack+0x4c>
     410:	63 30       	cpi	r22, 0x03	; 3
     412:	18 f4       	brcc	.+6      	; 0x41a <MTIMERS_vSetCallBack+0x38>
     414:	61 30       	cpi	r22, 0x01	; 1
     416:	41 f5       	brne	.+80     	; 0x468 <MTIMERS_vSetCallBack+0x86>
     418:	05 c0       	rjmp	.+10     	; 0x424 <MTIMERS_vSetCallBack+0x42>
     41a:	63 30       	cpi	r22, 0x03	; 3
     41c:	69 f0       	breq	.+26     	; 0x438 <MTIMERS_vSetCallBack+0x56>
     41e:	64 30       	cpi	r22, 0x04	; 4
     420:	19 f5       	brne	.+70     	; 0x468 <MTIMERS_vSetCallBack+0x86>
     422:	0f c0       	rjmp	.+30     	; 0x442 <MTIMERS_vSetCallBack+0x60>
     424:	50 93 81 00 	sts	0x0081, r21
     428:	40 93 80 00 	sts	0x0080, r20
     42c:	08 95       	ret
     42e:	50 93 83 00 	sts	0x0083, r21
     432:	40 93 82 00 	sts	0x0082, r20
     436:	08 95       	ret
     438:	50 93 85 00 	sts	0x0085, r21
     43c:	40 93 84 00 	sts	0x0084, r20
     440:	08 95       	ret
     442:	50 93 87 00 	sts	0x0087, r21
     446:	40 93 86 00 	sts	0x0086, r20
     44a:	08 95       	ret
     44c:	61 30       	cpi	r22, 0x01	; 1
     44e:	19 f0       	breq	.+6      	; 0x456 <MTIMERS_vSetCallBack+0x74>
     450:	62 30       	cpi	r22, 0x02	; 2
     452:	51 f4       	brne	.+20     	; 0x468 <MTIMERS_vSetCallBack+0x86>
     454:	05 c0       	rjmp	.+10     	; 0x460 <MTIMERS_vSetCallBack+0x7e>
     456:	50 93 7d 00 	sts	0x007D, r21
     45a:	40 93 7c 00 	sts	0x007C, r20
     45e:	08 95       	ret
     460:	50 93 7f 00 	sts	0x007F, r21
     464:	40 93 7e 00 	sts	0x007E, r20
     468:	08 95       	ret

0000046a <__vector_11>:
     46a:	1f 92       	push	r1
     46c:	0f 92       	push	r0
     46e:	0f b6       	in	r0, 0x3f	; 63
     470:	0f 92       	push	r0
     472:	11 24       	eor	r1, r1
     474:	2f 93       	push	r18
     476:	3f 93       	push	r19
     478:	4f 93       	push	r20
     47a:	5f 93       	push	r21
     47c:	6f 93       	push	r22
     47e:	7f 93       	push	r23
     480:	8f 93       	push	r24
     482:	9f 93       	push	r25
     484:	af 93       	push	r26
     486:	bf 93       	push	r27
     488:	ef 93       	push	r30
     48a:	ff 93       	push	r31
     48c:	80 91 8e 00 	lds	r24, 0x008E
     490:	90 91 8f 00 	lds	r25, 0x008F
     494:	01 96       	adiw	r24, 0x01	; 1
     496:	90 93 8f 00 	sts	0x008F, r25
     49a:	80 93 8e 00 	sts	0x008E, r24
     49e:	20 91 7a 00 	lds	r18, 0x007A
     4a2:	30 91 7b 00 	lds	r19, 0x007B
     4a6:	82 17       	cp	r24, r18
     4a8:	93 07       	cpc	r25, r19
     4aa:	59 f4       	brne	.+22     	; 0x4c2 <__vector_11+0x58>
     4ac:	e0 91 88 00 	lds	r30, 0x0088
     4b0:	f0 91 89 00 	lds	r31, 0x0089
     4b4:	30 97       	sbiw	r30, 0x00	; 0
     4b6:	29 f0       	breq	.+10     	; 0x4c2 <__vector_11+0x58>
     4b8:	09 95       	icall
     4ba:	10 92 8f 00 	sts	0x008F, r1
     4be:	10 92 8e 00 	sts	0x008E, r1
     4c2:	ff 91       	pop	r31
     4c4:	ef 91       	pop	r30
     4c6:	bf 91       	pop	r27
     4c8:	af 91       	pop	r26
     4ca:	9f 91       	pop	r25
     4cc:	8f 91       	pop	r24
     4ce:	7f 91       	pop	r23
     4d0:	6f 91       	pop	r22
     4d2:	5f 91       	pop	r21
     4d4:	4f 91       	pop	r20
     4d6:	3f 91       	pop	r19
     4d8:	2f 91       	pop	r18
     4da:	0f 90       	pop	r0
     4dc:	0f be       	out	0x3f, r0	; 63
     4de:	0f 90       	pop	r0
     4e0:	1f 90       	pop	r1
     4e2:	18 95       	reti

000004e4 <__vector_10>:
     4e4:	1f 92       	push	r1
     4e6:	0f 92       	push	r0
     4e8:	0f b6       	in	r0, 0x3f	; 63
     4ea:	0f 92       	push	r0
     4ec:	11 24       	eor	r1, r1
     4ee:	2f 93       	push	r18
     4f0:	3f 93       	push	r19
     4f2:	4f 93       	push	r20
     4f4:	5f 93       	push	r21
     4f6:	6f 93       	push	r22
     4f8:	7f 93       	push	r23
     4fa:	8f 93       	push	r24
     4fc:	9f 93       	push	r25
     4fe:	af 93       	push	r26
     500:	bf 93       	push	r27
     502:	ef 93       	push	r30
     504:	ff 93       	push	r31
     506:	80 91 8c 00 	lds	r24, 0x008C
     50a:	90 91 8d 00 	lds	r25, 0x008D
     50e:	01 96       	adiw	r24, 0x01	; 1
     510:	90 93 8d 00 	sts	0x008D, r25
     514:	80 93 8c 00 	sts	0x008C, r24
     518:	20 91 7a 00 	lds	r18, 0x007A
     51c:	30 91 7b 00 	lds	r19, 0x007B
     520:	82 17       	cp	r24, r18
     522:	93 07       	cpc	r25, r19
     524:	59 f4       	brne	.+22     	; 0x53c <__vector_10+0x58>
     526:	e0 91 8a 00 	lds	r30, 0x008A
     52a:	f0 91 8b 00 	lds	r31, 0x008B
     52e:	30 97       	sbiw	r30, 0x00	; 0
     530:	29 f0       	breq	.+10     	; 0x53c <__vector_10+0x58>
     532:	09 95       	icall
     534:	10 92 8d 00 	sts	0x008D, r1
     538:	10 92 8c 00 	sts	0x008C, r1
     53c:	ff 91       	pop	r31
     53e:	ef 91       	pop	r30
     540:	bf 91       	pop	r27
     542:	af 91       	pop	r26
     544:	9f 91       	pop	r25
     546:	8f 91       	pop	r24
     548:	7f 91       	pop	r23
     54a:	6f 91       	pop	r22
     54c:	5f 91       	pop	r21
     54e:	4f 91       	pop	r20
     550:	3f 91       	pop	r19
     552:	2f 91       	pop	r18
     554:	0f 90       	pop	r0
     556:	0f be       	out	0x3f, r0	; 63
     558:	0f 90       	pop	r0
     55a:	1f 90       	pop	r1
     55c:	18 95       	reti

0000055e <__vector_6>:
     55e:	1f 92       	push	r1
     560:	0f 92       	push	r0
     562:	0f b6       	in	r0, 0x3f	; 63
     564:	0f 92       	push	r0
     566:	11 24       	eor	r1, r1
     568:	2f 93       	push	r18
     56a:	3f 93       	push	r19
     56c:	4f 93       	push	r20
     56e:	5f 93       	push	r21
     570:	6f 93       	push	r22
     572:	7f 93       	push	r23
     574:	8f 93       	push	r24
     576:	9f 93       	push	r25
     578:	af 93       	push	r26
     57a:	bf 93       	push	r27
     57c:	ef 93       	push	r30
     57e:	ff 93       	push	r31
     580:	e0 91 80 00 	lds	r30, 0x0080
     584:	f0 91 81 00 	lds	r31, 0x0081
     588:	09 95       	icall
     58a:	ff 91       	pop	r31
     58c:	ef 91       	pop	r30
     58e:	bf 91       	pop	r27
     590:	af 91       	pop	r26
     592:	9f 91       	pop	r25
     594:	8f 91       	pop	r24
     596:	7f 91       	pop	r23
     598:	6f 91       	pop	r22
     59a:	5f 91       	pop	r21
     59c:	4f 91       	pop	r20
     59e:	3f 91       	pop	r19
     5a0:	2f 91       	pop	r18
     5a2:	0f 90       	pop	r0
     5a4:	0f be       	out	0x3f, r0	; 63
     5a6:	0f 90       	pop	r0
     5a8:	1f 90       	pop	r1
     5aa:	18 95       	reti

000005ac <__vector_7>:
     5ac:	1f 92       	push	r1
     5ae:	0f 92       	push	r0
     5b0:	0f b6       	in	r0, 0x3f	; 63
     5b2:	0f 92       	push	r0
     5b4:	11 24       	eor	r1, r1
     5b6:	2f 93       	push	r18
     5b8:	3f 93       	push	r19
     5ba:	4f 93       	push	r20
     5bc:	5f 93       	push	r21
     5be:	6f 93       	push	r22
     5c0:	7f 93       	push	r23
     5c2:	8f 93       	push	r24
     5c4:	9f 93       	push	r25
     5c6:	af 93       	push	r26
     5c8:	bf 93       	push	r27
     5ca:	ef 93       	push	r30
     5cc:	ff 93       	push	r31
     5ce:	e0 91 82 00 	lds	r30, 0x0082
     5d2:	f0 91 83 00 	lds	r31, 0x0083
     5d6:	09 95       	icall
     5d8:	ff 91       	pop	r31
     5da:	ef 91       	pop	r30
     5dc:	bf 91       	pop	r27
     5de:	af 91       	pop	r26
     5e0:	9f 91       	pop	r25
     5e2:	8f 91       	pop	r24
     5e4:	7f 91       	pop	r23
     5e6:	6f 91       	pop	r22
     5e8:	5f 91       	pop	r21
     5ea:	4f 91       	pop	r20
     5ec:	3f 91       	pop	r19
     5ee:	2f 91       	pop	r18
     5f0:	0f 90       	pop	r0
     5f2:	0f be       	out	0x3f, r0	; 63
     5f4:	0f 90       	pop	r0
     5f6:	1f 90       	pop	r1
     5f8:	18 95       	reti

000005fa <__vector_8>:
     5fa:	1f 92       	push	r1
     5fc:	0f 92       	push	r0
     5fe:	0f b6       	in	r0, 0x3f	; 63
     600:	0f 92       	push	r0
     602:	11 24       	eor	r1, r1
     604:	2f 93       	push	r18
     606:	3f 93       	push	r19
     608:	4f 93       	push	r20
     60a:	5f 93       	push	r21
     60c:	6f 93       	push	r22
     60e:	7f 93       	push	r23
     610:	8f 93       	push	r24
     612:	9f 93       	push	r25
     614:	af 93       	push	r26
     616:	bf 93       	push	r27
     618:	ef 93       	push	r30
     61a:	ff 93       	push	r31
     61c:	e0 91 84 00 	lds	r30, 0x0084
     620:	f0 91 85 00 	lds	r31, 0x0085
     624:	09 95       	icall
     626:	ff 91       	pop	r31
     628:	ef 91       	pop	r30
     62a:	bf 91       	pop	r27
     62c:	af 91       	pop	r26
     62e:	9f 91       	pop	r25
     630:	8f 91       	pop	r24
     632:	7f 91       	pop	r23
     634:	6f 91       	pop	r22
     636:	5f 91       	pop	r21
     638:	4f 91       	pop	r20
     63a:	3f 91       	pop	r19
     63c:	2f 91       	pop	r18
     63e:	0f 90       	pop	r0
     640:	0f be       	out	0x3f, r0	; 63
     642:	0f 90       	pop	r0
     644:	1f 90       	pop	r1
     646:	18 95       	reti

00000648 <__vector_9>:
     648:	1f 92       	push	r1
     64a:	0f 92       	push	r0
     64c:	0f b6       	in	r0, 0x3f	; 63
     64e:	0f 92       	push	r0
     650:	11 24       	eor	r1, r1
     652:	2f 93       	push	r18
     654:	3f 93       	push	r19
     656:	4f 93       	push	r20
     658:	5f 93       	push	r21
     65a:	6f 93       	push	r22
     65c:	7f 93       	push	r23
     65e:	8f 93       	push	r24
     660:	9f 93       	push	r25
     662:	af 93       	push	r26
     664:	bf 93       	push	r27
     666:	ef 93       	push	r30
     668:	ff 93       	push	r31
     66a:	e0 91 86 00 	lds	r30, 0x0086
     66e:	f0 91 87 00 	lds	r31, 0x0087
     672:	09 95       	icall
     674:	ff 91       	pop	r31
     676:	ef 91       	pop	r30
     678:	bf 91       	pop	r27
     67a:	af 91       	pop	r26
     67c:	9f 91       	pop	r25
     67e:	8f 91       	pop	r24
     680:	7f 91       	pop	r23
     682:	6f 91       	pop	r22
     684:	5f 91       	pop	r21
     686:	4f 91       	pop	r20
     688:	3f 91       	pop	r19
     68a:	2f 91       	pop	r18
     68c:	0f 90       	pop	r0
     68e:	0f be       	out	0x3f, r0	; 63
     690:	0f 90       	pop	r0
     692:	1f 90       	pop	r1
     694:	18 95       	reti

00000696 <__vector_4>:
     696:	1f 92       	push	r1
     698:	0f 92       	push	r0
     69a:	0f b6       	in	r0, 0x3f	; 63
     69c:	0f 92       	push	r0
     69e:	11 24       	eor	r1, r1
     6a0:	2f 93       	push	r18
     6a2:	3f 93       	push	r19
     6a4:	4f 93       	push	r20
     6a6:	5f 93       	push	r21
     6a8:	6f 93       	push	r22
     6aa:	7f 93       	push	r23
     6ac:	8f 93       	push	r24
     6ae:	9f 93       	push	r25
     6b0:	af 93       	push	r26
     6b2:	bf 93       	push	r27
     6b4:	ef 93       	push	r30
     6b6:	ff 93       	push	r31
     6b8:	e0 91 7e 00 	lds	r30, 0x007E
     6bc:	f0 91 7f 00 	lds	r31, 0x007F
     6c0:	09 95       	icall
     6c2:	ff 91       	pop	r31
     6c4:	ef 91       	pop	r30
     6c6:	bf 91       	pop	r27
     6c8:	af 91       	pop	r26
     6ca:	9f 91       	pop	r25
     6cc:	8f 91       	pop	r24
     6ce:	7f 91       	pop	r23
     6d0:	6f 91       	pop	r22
     6d2:	5f 91       	pop	r21
     6d4:	4f 91       	pop	r20
     6d6:	3f 91       	pop	r19
     6d8:	2f 91       	pop	r18
     6da:	0f 90       	pop	r0
     6dc:	0f be       	out	0x3f, r0	; 63
     6de:	0f 90       	pop	r0
     6e0:	1f 90       	pop	r1
     6e2:	18 95       	reti

000006e4 <__vector_5>:
     6e4:	1f 92       	push	r1
     6e6:	0f 92       	push	r0
     6e8:	0f b6       	in	r0, 0x3f	; 63
     6ea:	0f 92       	push	r0
     6ec:	11 24       	eor	r1, r1
     6ee:	2f 93       	push	r18
     6f0:	3f 93       	push	r19
     6f2:	4f 93       	push	r20
     6f4:	5f 93       	push	r21
     6f6:	6f 93       	push	r22
     6f8:	7f 93       	push	r23
     6fa:	8f 93       	push	r24
     6fc:	9f 93       	push	r25
     6fe:	af 93       	push	r26
     700:	bf 93       	push	r27
     702:	ef 93       	push	r30
     704:	ff 93       	push	r31
     706:	e0 91 7c 00 	lds	r30, 0x007C
     70a:	f0 91 7d 00 	lds	r31, 0x007D
     70e:	09 95       	icall
     710:	ff 91       	pop	r31
     712:	ef 91       	pop	r30
     714:	bf 91       	pop	r27
     716:	af 91       	pop	r26
     718:	9f 91       	pop	r25
     71a:	8f 91       	pop	r24
     71c:	7f 91       	pop	r23
     71e:	6f 91       	pop	r22
     720:	5f 91       	pop	r21
     722:	4f 91       	pop	r20
     724:	3f 91       	pop	r19
     726:	2f 91       	pop	r18
     728:	0f 90       	pop	r0
     72a:	0f be       	out	0x3f, r0	; 63
     72c:	0f 90       	pop	r0
     72e:	1f 90       	pop	r1
     730:	18 95       	reti

00000732 <MGIE_vEnableGlobalInterrupt>:
     732:	8f b7       	in	r24, 0x3f	; 63
     734:	80 68       	ori	r24, 0x80	; 128
     736:	8f bf       	out	0x3f, r24	; 63
     738:	08 95       	ret

0000073a <MGIE_vDisableGlobalInterrupt>:
     73a:	8f b7       	in	r24, 0x3f	; 63
     73c:	8f 77       	andi	r24, 0x7F	; 127
     73e:	8f bf       	out	0x3f, r24	; 63
     740:	08 95       	ret

00000742 <MEXTI_vInit>:
     742:	85 b7       	in	r24, 0x35	; 53
     744:	82 60       	ori	r24, 0x02	; 2
     746:	85 bf       	out	0x35, r24	; 53
     748:	85 b7       	in	r24, 0x35	; 53
     74a:	8e 7f       	andi	r24, 0xFE	; 254
     74c:	85 bf       	out	0x35, r24	; 53
     74e:	8b b7       	in	r24, 0x3b	; 59
     750:	80 64       	ori	r24, 0x40	; 64
     752:	8b bf       	out	0x3b, r24	; 59
     754:	08 95       	ret

00000756 <MEXTI_vEnableInterrupt>:
     756:	82 30       	cpi	r24, 0x02	; 2
     758:	39 f0       	breq	.+14     	; 0x768 <MEXTI_vEnableInterrupt+0x12>
     75a:	83 30       	cpi	r24, 0x03	; 3
     75c:	49 f0       	breq	.+18     	; 0x770 <MEXTI_vEnableInterrupt+0x1a>
     75e:	81 30       	cpi	r24, 0x01	; 1
     760:	51 f4       	brne	.+20     	; 0x776 <MEXTI_vEnableInterrupt+0x20>
     762:	8b b7       	in	r24, 0x3b	; 59
     764:	80 64       	ori	r24, 0x40	; 64
     766:	02 c0       	rjmp	.+4      	; 0x76c <MEXTI_vEnableInterrupt+0x16>
     768:	8b b7       	in	r24, 0x3b	; 59
     76a:	80 68       	ori	r24, 0x80	; 128
     76c:	8b bf       	out	0x3b, r24	; 59
     76e:	08 95       	ret
     770:	8b b7       	in	r24, 0x3b	; 59
     772:	80 62       	ori	r24, 0x20	; 32
     774:	8b bf       	out	0x3b, r24	; 59
     776:	08 95       	ret

00000778 <MEXTI_vDisableInterrupt>:
     778:	82 30       	cpi	r24, 0x02	; 2
     77a:	39 f0       	breq	.+14     	; 0x78a <MEXTI_vDisableInterrupt+0x12>
     77c:	83 30       	cpi	r24, 0x03	; 3
     77e:	49 f0       	breq	.+18     	; 0x792 <MEXTI_vDisableInterrupt+0x1a>
     780:	81 30       	cpi	r24, 0x01	; 1
     782:	51 f4       	brne	.+20     	; 0x798 <MEXTI_vDisableInterrupt+0x20>
     784:	8b b7       	in	r24, 0x3b	; 59
     786:	8f 7b       	andi	r24, 0xBF	; 191
     788:	02 c0       	rjmp	.+4      	; 0x78e <MEXTI_vDisableInterrupt+0x16>
     78a:	8b b7       	in	r24, 0x3b	; 59
     78c:	8f 77       	andi	r24, 0x7F	; 127
     78e:	8b bf       	out	0x3b, r24	; 59
     790:	08 95       	ret
     792:	8b b7       	in	r24, 0x3b	; 59
     794:	8f 7d       	andi	r24, 0xDF	; 223
     796:	8b bf       	out	0x3b, r24	; 59
     798:	08 95       	ret

0000079a <MEXTI_vSetSenseControl>:
     79a:	82 30       	cpi	r24, 0x02	; 2
     79c:	29 f1       	breq	.+74     	; 0x7e8 <MEXTI_vSetSenseControl+0x4e>
     79e:	83 30       	cpi	r24, 0x03	; 3
     7a0:	09 f4       	brne	.+2      	; 0x7a4 <MEXTI_vSetSenseControl+0xa>
     7a2:	41 c0       	rjmp	.+130    	; 0x826 <MEXTI_vSetSenseControl+0x8c>
     7a4:	81 30       	cpi	r24, 0x01	; 1
     7a6:	09 f0       	breq	.+2      	; 0x7aa <MEXTI_vSetSenseControl+0x10>
     7a8:	4a c0       	rjmp	.+148    	; 0x83e <MEXTI_vSetSenseControl+0xa4>
     7aa:	62 30       	cpi	r22, 0x02	; 2
     7ac:	71 f0       	breq	.+28     	; 0x7ca <MEXTI_vSetSenseControl+0x30>
     7ae:	63 30       	cpi	r22, 0x03	; 3
     7b0:	20 f4       	brcc	.+8      	; 0x7ba <MEXTI_vSetSenseControl+0x20>
     7b2:	61 30       	cpi	r22, 0x01	; 1
     7b4:	09 f0       	breq	.+2      	; 0x7b8 <MEXTI_vSetSenseControl+0x1e>
     7b6:	43 c0       	rjmp	.+134    	; 0x83e <MEXTI_vSetSenseControl+0xa4>
     7b8:	05 c0       	rjmp	.+10     	; 0x7c4 <MEXTI_vSetSenseControl+0x2a>
     7ba:	63 30       	cpi	r22, 0x03	; 3
     7bc:	79 f0       	breq	.+30     	; 0x7dc <MEXTI_vSetSenseControl+0x42>
     7be:	64 30       	cpi	r22, 0x04	; 4
     7c0:	f1 f5       	brne	.+124    	; 0x83e <MEXTI_vSetSenseControl+0xa4>
     7c2:	06 c0       	rjmp	.+12     	; 0x7d0 <MEXTI_vSetSenseControl+0x36>
     7c4:	85 b7       	in	r24, 0x35	; 53
     7c6:	82 60       	ori	r24, 0x02	; 2
     7c8:	0b c0       	rjmp	.+22     	; 0x7e0 <MEXTI_vSetSenseControl+0x46>
     7ca:	85 b7       	in	r24, 0x35	; 53
     7cc:	82 60       	ori	r24, 0x02	; 2
     7ce:	02 c0       	rjmp	.+4      	; 0x7d4 <MEXTI_vSetSenseControl+0x3a>
     7d0:	85 b7       	in	r24, 0x35	; 53
     7d2:	8d 7f       	andi	r24, 0xFD	; 253
     7d4:	85 bf       	out	0x35, r24	; 53
     7d6:	85 b7       	in	r24, 0x35	; 53
     7d8:	81 60       	ori	r24, 0x01	; 1
     7da:	23 c0       	rjmp	.+70     	; 0x822 <MEXTI_vSetSenseControl+0x88>
     7dc:	85 b7       	in	r24, 0x35	; 53
     7de:	8d 7f       	andi	r24, 0xFD	; 253
     7e0:	85 bf       	out	0x35, r24	; 53
     7e2:	85 b7       	in	r24, 0x35	; 53
     7e4:	8e 7f       	andi	r24, 0xFE	; 254
     7e6:	1d c0       	rjmp	.+58     	; 0x822 <MEXTI_vSetSenseControl+0x88>
     7e8:	62 30       	cpi	r22, 0x02	; 2
     7ea:	69 f0       	breq	.+26     	; 0x806 <MEXTI_vSetSenseControl+0x6c>
     7ec:	63 30       	cpi	r22, 0x03	; 3
     7ee:	18 f4       	brcc	.+6      	; 0x7f6 <MEXTI_vSetSenseControl+0x5c>
     7f0:	61 30       	cpi	r22, 0x01	; 1
     7f2:	29 f5       	brne	.+74     	; 0x83e <MEXTI_vSetSenseControl+0xa4>
     7f4:	05 c0       	rjmp	.+10     	; 0x800 <MEXTI_vSetSenseControl+0x66>
     7f6:	63 30       	cpi	r22, 0x03	; 3
     7f8:	79 f0       	breq	.+30     	; 0x818 <MEXTI_vSetSenseControl+0x7e>
     7fa:	64 30       	cpi	r22, 0x04	; 4
     7fc:	01 f5       	brne	.+64     	; 0x83e <MEXTI_vSetSenseControl+0xa4>
     7fe:	06 c0       	rjmp	.+12     	; 0x80c <MEXTI_vSetSenseControl+0x72>
     800:	85 b7       	in	r24, 0x35	; 53
     802:	88 60       	ori	r24, 0x08	; 8
     804:	0b c0       	rjmp	.+22     	; 0x81c <MEXTI_vSetSenseControl+0x82>
     806:	85 b7       	in	r24, 0x35	; 53
     808:	88 60       	ori	r24, 0x08	; 8
     80a:	02 c0       	rjmp	.+4      	; 0x810 <MEXTI_vSetSenseControl+0x76>
     80c:	85 b7       	in	r24, 0x35	; 53
     80e:	87 7f       	andi	r24, 0xF7	; 247
     810:	85 bf       	out	0x35, r24	; 53
     812:	85 b7       	in	r24, 0x35	; 53
     814:	84 60       	ori	r24, 0x04	; 4
     816:	05 c0       	rjmp	.+10     	; 0x822 <MEXTI_vSetSenseControl+0x88>
     818:	85 b7       	in	r24, 0x35	; 53
     81a:	87 7f       	andi	r24, 0xF7	; 247
     81c:	85 bf       	out	0x35, r24	; 53
     81e:	85 b7       	in	r24, 0x35	; 53
     820:	8b 7f       	andi	r24, 0xFB	; 251
     822:	85 bf       	out	0x35, r24	; 53
     824:	08 95       	ret
     826:	61 30       	cpi	r22, 0x01	; 1
     828:	19 f0       	breq	.+6      	; 0x830 <MEXTI_vSetSenseControl+0x96>
     82a:	62 30       	cpi	r22, 0x02	; 2
     82c:	41 f4       	brne	.+16     	; 0x83e <MEXTI_vSetSenseControl+0xa4>
     82e:	04 c0       	rjmp	.+8      	; 0x838 <MEXTI_vSetSenseControl+0x9e>
     830:	84 b7       	in	r24, 0x34	; 52
     832:	8f 7b       	andi	r24, 0xBF	; 191
     834:	84 bf       	out	0x34, r24	; 52
     836:	08 95       	ret
     838:	84 b7       	in	r24, 0x34	; 52
     83a:	80 64       	ori	r24, 0x40	; 64
     83c:	84 bf       	out	0x34, r24	; 52
     83e:	08 95       	ret

00000840 <MEXTI_vSetCallBack>:
     840:	82 30       	cpi	r24, 0x02	; 2
     842:	49 f0       	breq	.+18     	; 0x856 <MEXTI_vSetCallBack+0x16>
     844:	83 30       	cpi	r24, 0x03	; 3
     846:	61 f0       	breq	.+24     	; 0x860 <__stack+0x1>
     848:	81 30       	cpi	r24, 0x01	; 1
     84a:	71 f4       	brne	.+28     	; 0x868 <__stack+0x9>
     84c:	70 93 91 00 	sts	0x0091, r23
     850:	60 93 90 00 	sts	0x0090, r22
     854:	08 95       	ret
     856:	70 93 93 00 	sts	0x0093, r23
     85a:	60 93 92 00 	sts	0x0092, r22
     85e:	08 95       	ret
     860:	70 93 95 00 	sts	0x0095, r23
     864:	60 93 94 00 	sts	0x0094, r22
     868:	08 95       	ret

0000086a <MDIO_vSetPinDirection>:
     86a:	41 30       	cpi	r20, 0x01	; 1
     86c:	b1 f5       	brne	.+108    	; 0x8da <MDIO_vSetPinDirection+0x70>
     86e:	81 30       	cpi	r24, 0x01	; 1
     870:	99 f0       	breq	.+38     	; 0x898 <MDIO_vSetPinDirection+0x2e>
     872:	81 30       	cpi	r24, 0x01	; 1
     874:	30 f0       	brcs	.+12     	; 0x882 <MDIO_vSetPinDirection+0x18>
     876:	82 30       	cpi	r24, 0x02	; 2
     878:	d1 f0       	breq	.+52     	; 0x8ae <MDIO_vSetPinDirection+0x44>
     87a:	83 30       	cpi	r24, 0x03	; 3
     87c:	09 f0       	breq	.+2      	; 0x880 <MDIO_vSetPinDirection+0x16>
     87e:	67 c0       	rjmp	.+206    	; 0x94e <MDIO_vSetPinDirection+0xe4>
     880:	21 c0       	rjmp	.+66     	; 0x8c4 <MDIO_vSetPinDirection+0x5a>
     882:	2a b3       	in	r18, 0x1a	; 26
     884:	81 e0       	ldi	r24, 0x01	; 1
     886:	90 e0       	ldi	r25, 0x00	; 0
     888:	02 c0       	rjmp	.+4      	; 0x88e <MDIO_vSetPinDirection+0x24>
     88a:	88 0f       	add	r24, r24
     88c:	99 1f       	adc	r25, r25
     88e:	6a 95       	dec	r22
     890:	e2 f7       	brpl	.-8      	; 0x88a <MDIO_vSetPinDirection+0x20>
     892:	28 2b       	or	r18, r24
     894:	2a bb       	out	0x1a, r18	; 26
     896:	08 95       	ret
     898:	27 b3       	in	r18, 0x17	; 23
     89a:	81 e0       	ldi	r24, 0x01	; 1
     89c:	90 e0       	ldi	r25, 0x00	; 0
     89e:	02 c0       	rjmp	.+4      	; 0x8a4 <MDIO_vSetPinDirection+0x3a>
     8a0:	88 0f       	add	r24, r24
     8a2:	99 1f       	adc	r25, r25
     8a4:	6a 95       	dec	r22
     8a6:	e2 f7       	brpl	.-8      	; 0x8a0 <MDIO_vSetPinDirection+0x36>
     8a8:	28 2b       	or	r18, r24
     8aa:	27 bb       	out	0x17, r18	; 23
     8ac:	08 95       	ret
     8ae:	24 b3       	in	r18, 0x14	; 20
     8b0:	81 e0       	ldi	r24, 0x01	; 1
     8b2:	90 e0       	ldi	r25, 0x00	; 0
     8b4:	02 c0       	rjmp	.+4      	; 0x8ba <MDIO_vSetPinDirection+0x50>
     8b6:	88 0f       	add	r24, r24
     8b8:	99 1f       	adc	r25, r25
     8ba:	6a 95       	dec	r22
     8bc:	e2 f7       	brpl	.-8      	; 0x8b6 <MDIO_vSetPinDirection+0x4c>
     8be:	28 2b       	or	r18, r24
     8c0:	24 bb       	out	0x14, r18	; 20
     8c2:	08 95       	ret
     8c4:	21 b3       	in	r18, 0x11	; 17
     8c6:	81 e0       	ldi	r24, 0x01	; 1
     8c8:	90 e0       	ldi	r25, 0x00	; 0
     8ca:	02 c0       	rjmp	.+4      	; 0x8d0 <MDIO_vSetPinDirection+0x66>
     8cc:	88 0f       	add	r24, r24
     8ce:	99 1f       	adc	r25, r25
     8d0:	6a 95       	dec	r22
     8d2:	e2 f7       	brpl	.-8      	; 0x8cc <MDIO_vSetPinDirection+0x62>
     8d4:	28 2b       	or	r18, r24
     8d6:	21 bb       	out	0x11, r18	; 17
     8d8:	08 95       	ret
     8da:	44 23       	and	r20, r20
     8dc:	c1 f5       	brne	.+112    	; 0x94e <MDIO_vSetPinDirection+0xe4>
     8de:	81 30       	cpi	r24, 0x01	; 1
     8e0:	99 f0       	breq	.+38     	; 0x908 <MDIO_vSetPinDirection+0x9e>
     8e2:	81 30       	cpi	r24, 0x01	; 1
     8e4:	28 f0       	brcs	.+10     	; 0x8f0 <MDIO_vSetPinDirection+0x86>
     8e6:	82 30       	cpi	r24, 0x02	; 2
     8e8:	d9 f0       	breq	.+54     	; 0x920 <MDIO_vSetPinDirection+0xb6>
     8ea:	83 30       	cpi	r24, 0x03	; 3
     8ec:	81 f5       	brne	.+96     	; 0x94e <MDIO_vSetPinDirection+0xe4>
     8ee:	24 c0       	rjmp	.+72     	; 0x938 <MDIO_vSetPinDirection+0xce>
     8f0:	2a b3       	in	r18, 0x1a	; 26
     8f2:	81 e0       	ldi	r24, 0x01	; 1
     8f4:	90 e0       	ldi	r25, 0x00	; 0
     8f6:	02 c0       	rjmp	.+4      	; 0x8fc <MDIO_vSetPinDirection+0x92>
     8f8:	88 0f       	add	r24, r24
     8fa:	99 1f       	adc	r25, r25
     8fc:	6a 95       	dec	r22
     8fe:	e2 f7       	brpl	.-8      	; 0x8f8 <MDIO_vSetPinDirection+0x8e>
     900:	80 95       	com	r24
     902:	82 23       	and	r24, r18
     904:	8a bb       	out	0x1a, r24	; 26
     906:	08 95       	ret
     908:	27 b3       	in	r18, 0x17	; 23
     90a:	81 e0       	ldi	r24, 0x01	; 1
     90c:	90 e0       	ldi	r25, 0x00	; 0
     90e:	02 c0       	rjmp	.+4      	; 0x914 <MDIO_vSetPinDirection+0xaa>
     910:	88 0f       	add	r24, r24
     912:	99 1f       	adc	r25, r25
     914:	6a 95       	dec	r22
     916:	e2 f7       	brpl	.-8      	; 0x910 <MDIO_vSetPinDirection+0xa6>
     918:	80 95       	com	r24
     91a:	82 23       	and	r24, r18
     91c:	87 bb       	out	0x17, r24	; 23
     91e:	08 95       	ret
     920:	24 b3       	in	r18, 0x14	; 20
     922:	81 e0       	ldi	r24, 0x01	; 1
     924:	90 e0       	ldi	r25, 0x00	; 0
     926:	02 c0       	rjmp	.+4      	; 0x92c <MDIO_vSetPinDirection+0xc2>
     928:	88 0f       	add	r24, r24
     92a:	99 1f       	adc	r25, r25
     92c:	6a 95       	dec	r22
     92e:	e2 f7       	brpl	.-8      	; 0x928 <MDIO_vSetPinDirection+0xbe>
     930:	80 95       	com	r24
     932:	82 23       	and	r24, r18
     934:	84 bb       	out	0x14, r24	; 20
     936:	08 95       	ret
     938:	21 b3       	in	r18, 0x11	; 17
     93a:	81 e0       	ldi	r24, 0x01	; 1
     93c:	90 e0       	ldi	r25, 0x00	; 0
     93e:	02 c0       	rjmp	.+4      	; 0x944 <MDIO_vSetPinDirection+0xda>
     940:	88 0f       	add	r24, r24
     942:	99 1f       	adc	r25, r25
     944:	6a 95       	dec	r22
     946:	e2 f7       	brpl	.-8      	; 0x940 <MDIO_vSetPinDirection+0xd6>
     948:	80 95       	com	r24
     94a:	82 23       	and	r24, r18
     94c:	81 bb       	out	0x11, r24	; 17
     94e:	08 95       	ret

00000950 <MDIO_vSetPortDirection>:
     950:	81 30       	cpi	r24, 0x01	; 1
     952:	49 f0       	breq	.+18     	; 0x966 <MDIO_vSetPortDirection+0x16>
     954:	81 30       	cpi	r24, 0x01	; 1
     956:	28 f0       	brcs	.+10     	; 0x962 <MDIO_vSetPortDirection+0x12>
     958:	82 30       	cpi	r24, 0x02	; 2
     95a:	39 f0       	breq	.+14     	; 0x96a <MDIO_vSetPortDirection+0x1a>
     95c:	83 30       	cpi	r24, 0x03	; 3
     95e:	41 f4       	brne	.+16     	; 0x970 <MDIO_vSetPortDirection+0x20>
     960:	06 c0       	rjmp	.+12     	; 0x96e <MDIO_vSetPortDirection+0x1e>
     962:	6a bb       	out	0x1a, r22	; 26
     964:	08 95       	ret
     966:	67 bb       	out	0x17, r22	; 23
     968:	08 95       	ret
     96a:	64 bb       	out	0x14, r22	; 20
     96c:	08 95       	ret
     96e:	61 bb       	out	0x11, r22	; 17
     970:	08 95       	ret

00000972 <MDIO_vSetPinValue>:
     972:	41 30       	cpi	r20, 0x01	; 1
     974:	b1 f5       	brne	.+108    	; 0x9e2 <MDIO_vSetPinValue+0x70>
     976:	81 30       	cpi	r24, 0x01	; 1
     978:	99 f0       	breq	.+38     	; 0x9a0 <MDIO_vSetPinValue+0x2e>
     97a:	81 30       	cpi	r24, 0x01	; 1
     97c:	30 f0       	brcs	.+12     	; 0x98a <MDIO_vSetPinValue+0x18>
     97e:	82 30       	cpi	r24, 0x02	; 2
     980:	d1 f0       	breq	.+52     	; 0x9b6 <MDIO_vSetPinValue+0x44>
     982:	83 30       	cpi	r24, 0x03	; 3
     984:	09 f0       	breq	.+2      	; 0x988 <MDIO_vSetPinValue+0x16>
     986:	67 c0       	rjmp	.+206    	; 0xa56 <MDIO_vSetPinValue+0xe4>
     988:	21 c0       	rjmp	.+66     	; 0x9cc <MDIO_vSetPinValue+0x5a>
     98a:	2b b3       	in	r18, 0x1b	; 27
     98c:	81 e0       	ldi	r24, 0x01	; 1
     98e:	90 e0       	ldi	r25, 0x00	; 0
     990:	02 c0       	rjmp	.+4      	; 0x996 <MDIO_vSetPinValue+0x24>
     992:	88 0f       	add	r24, r24
     994:	99 1f       	adc	r25, r25
     996:	6a 95       	dec	r22
     998:	e2 f7       	brpl	.-8      	; 0x992 <MDIO_vSetPinValue+0x20>
     99a:	28 2b       	or	r18, r24
     99c:	2b bb       	out	0x1b, r18	; 27
     99e:	08 95       	ret
     9a0:	28 b3       	in	r18, 0x18	; 24
     9a2:	81 e0       	ldi	r24, 0x01	; 1
     9a4:	90 e0       	ldi	r25, 0x00	; 0
     9a6:	02 c0       	rjmp	.+4      	; 0x9ac <MDIO_vSetPinValue+0x3a>
     9a8:	88 0f       	add	r24, r24
     9aa:	99 1f       	adc	r25, r25
     9ac:	6a 95       	dec	r22
     9ae:	e2 f7       	brpl	.-8      	; 0x9a8 <MDIO_vSetPinValue+0x36>
     9b0:	28 2b       	or	r18, r24
     9b2:	28 bb       	out	0x18, r18	; 24
     9b4:	08 95       	ret
     9b6:	25 b3       	in	r18, 0x15	; 21
     9b8:	81 e0       	ldi	r24, 0x01	; 1
     9ba:	90 e0       	ldi	r25, 0x00	; 0
     9bc:	02 c0       	rjmp	.+4      	; 0x9c2 <MDIO_vSetPinValue+0x50>
     9be:	88 0f       	add	r24, r24
     9c0:	99 1f       	adc	r25, r25
     9c2:	6a 95       	dec	r22
     9c4:	e2 f7       	brpl	.-8      	; 0x9be <MDIO_vSetPinValue+0x4c>
     9c6:	28 2b       	or	r18, r24
     9c8:	25 bb       	out	0x15, r18	; 21
     9ca:	08 95       	ret
     9cc:	22 b3       	in	r18, 0x12	; 18
     9ce:	81 e0       	ldi	r24, 0x01	; 1
     9d0:	90 e0       	ldi	r25, 0x00	; 0
     9d2:	02 c0       	rjmp	.+4      	; 0x9d8 <MDIO_vSetPinValue+0x66>
     9d4:	88 0f       	add	r24, r24
     9d6:	99 1f       	adc	r25, r25
     9d8:	6a 95       	dec	r22
     9da:	e2 f7       	brpl	.-8      	; 0x9d4 <MDIO_vSetPinValue+0x62>
     9dc:	28 2b       	or	r18, r24
     9de:	22 bb       	out	0x12, r18	; 18
     9e0:	08 95       	ret
     9e2:	44 23       	and	r20, r20
     9e4:	c1 f5       	brne	.+112    	; 0xa56 <MDIO_vSetPinValue+0xe4>
     9e6:	81 30       	cpi	r24, 0x01	; 1
     9e8:	99 f0       	breq	.+38     	; 0xa10 <MDIO_vSetPinValue+0x9e>
     9ea:	81 30       	cpi	r24, 0x01	; 1
     9ec:	28 f0       	brcs	.+10     	; 0x9f8 <MDIO_vSetPinValue+0x86>
     9ee:	82 30       	cpi	r24, 0x02	; 2
     9f0:	d9 f0       	breq	.+54     	; 0xa28 <MDIO_vSetPinValue+0xb6>
     9f2:	83 30       	cpi	r24, 0x03	; 3
     9f4:	81 f5       	brne	.+96     	; 0xa56 <MDIO_vSetPinValue+0xe4>
     9f6:	24 c0       	rjmp	.+72     	; 0xa40 <MDIO_vSetPinValue+0xce>
     9f8:	2b b3       	in	r18, 0x1b	; 27
     9fa:	81 e0       	ldi	r24, 0x01	; 1
     9fc:	90 e0       	ldi	r25, 0x00	; 0
     9fe:	02 c0       	rjmp	.+4      	; 0xa04 <MDIO_vSetPinValue+0x92>
     a00:	88 0f       	add	r24, r24
     a02:	99 1f       	adc	r25, r25
     a04:	6a 95       	dec	r22
     a06:	e2 f7       	brpl	.-8      	; 0xa00 <MDIO_vSetPinValue+0x8e>
     a08:	80 95       	com	r24
     a0a:	82 23       	and	r24, r18
     a0c:	8b bb       	out	0x1b, r24	; 27
     a0e:	08 95       	ret
     a10:	28 b3       	in	r18, 0x18	; 24
     a12:	81 e0       	ldi	r24, 0x01	; 1
     a14:	90 e0       	ldi	r25, 0x00	; 0
     a16:	02 c0       	rjmp	.+4      	; 0xa1c <MDIO_vSetPinValue+0xaa>
     a18:	88 0f       	add	r24, r24
     a1a:	99 1f       	adc	r25, r25
     a1c:	6a 95       	dec	r22
     a1e:	e2 f7       	brpl	.-8      	; 0xa18 <MDIO_vSetPinValue+0xa6>
     a20:	80 95       	com	r24
     a22:	82 23       	and	r24, r18
     a24:	88 bb       	out	0x18, r24	; 24
     a26:	08 95       	ret
     a28:	25 b3       	in	r18, 0x15	; 21
     a2a:	81 e0       	ldi	r24, 0x01	; 1
     a2c:	90 e0       	ldi	r25, 0x00	; 0
     a2e:	02 c0       	rjmp	.+4      	; 0xa34 <MDIO_vSetPinValue+0xc2>
     a30:	88 0f       	add	r24, r24
     a32:	99 1f       	adc	r25, r25
     a34:	6a 95       	dec	r22
     a36:	e2 f7       	brpl	.-8      	; 0xa30 <MDIO_vSetPinValue+0xbe>
     a38:	80 95       	com	r24
     a3a:	82 23       	and	r24, r18
     a3c:	85 bb       	out	0x15, r24	; 21
     a3e:	08 95       	ret
     a40:	22 b3       	in	r18, 0x12	; 18
     a42:	81 e0       	ldi	r24, 0x01	; 1
     a44:	90 e0       	ldi	r25, 0x00	; 0
     a46:	02 c0       	rjmp	.+4      	; 0xa4c <MDIO_vSetPinValue+0xda>
     a48:	88 0f       	add	r24, r24
     a4a:	99 1f       	adc	r25, r25
     a4c:	6a 95       	dec	r22
     a4e:	e2 f7       	brpl	.-8      	; 0xa48 <MDIO_vSetPinValue+0xd6>
     a50:	80 95       	com	r24
     a52:	82 23       	and	r24, r18
     a54:	82 bb       	out	0x12, r24	; 18
     a56:	08 95       	ret

00000a58 <MDIO_vSetPortValue>:
     a58:	81 30       	cpi	r24, 0x01	; 1
     a5a:	49 f0       	breq	.+18     	; 0xa6e <MDIO_vSetPortValue+0x16>
     a5c:	81 30       	cpi	r24, 0x01	; 1
     a5e:	28 f0       	brcs	.+10     	; 0xa6a <MDIO_vSetPortValue+0x12>
     a60:	82 30       	cpi	r24, 0x02	; 2
     a62:	39 f0       	breq	.+14     	; 0xa72 <MDIO_vSetPortValue+0x1a>
     a64:	83 30       	cpi	r24, 0x03	; 3
     a66:	41 f4       	brne	.+16     	; 0xa78 <MDIO_vSetPortValue+0x20>
     a68:	06 c0       	rjmp	.+12     	; 0xa76 <MDIO_vSetPortValue+0x1e>
     a6a:	6b bb       	out	0x1b, r22	; 27
     a6c:	08 95       	ret
     a6e:	68 bb       	out	0x18, r22	; 24
     a70:	08 95       	ret
     a72:	65 bb       	out	0x15, r22	; 21
     a74:	08 95       	ret
     a76:	62 bb       	out	0x12, r22	; 18
     a78:	08 95       	ret

00000a7a <MDIO_u8GetPinValue>:
     a7a:	81 30       	cpi	r24, 0x01	; 1
     a7c:	51 f0       	breq	.+20     	; 0xa92 <MDIO_u8GetPinValue+0x18>
     a7e:	81 30       	cpi	r24, 0x01	; 1
     a80:	30 f0       	brcs	.+12     	; 0xa8e <MDIO_u8GetPinValue+0x14>
     a82:	82 30       	cpi	r24, 0x02	; 2
     a84:	41 f0       	breq	.+16     	; 0xa96 <MDIO_u8GetPinValue+0x1c>
     a86:	83 30       	cpi	r24, 0x03	; 3
     a88:	79 f0       	breq	.+30     	; 0xaa8 <MDIO_u8GetPinValue+0x2e>
     a8a:	80 e0       	ldi	r24, 0x00	; 0
     a8c:	08 95       	ret
     a8e:	89 b3       	in	r24, 0x19	; 25
     a90:	03 c0       	rjmp	.+6      	; 0xa98 <MDIO_u8GetPinValue+0x1e>
     a92:	86 b3       	in	r24, 0x16	; 22
     a94:	01 c0       	rjmp	.+2      	; 0xa98 <MDIO_u8GetPinValue+0x1e>
     a96:	83 b3       	in	r24, 0x13	; 19
     a98:	90 e0       	ldi	r25, 0x00	; 0
     a9a:	02 c0       	rjmp	.+4      	; 0xaa0 <MDIO_u8GetPinValue+0x26>
     a9c:	95 95       	asr	r25
     a9e:	87 95       	ror	r24
     aa0:	6a 95       	dec	r22
     aa2:	e2 f7       	brpl	.-8      	; 0xa9c <MDIO_u8GetPinValue+0x22>
     aa4:	81 70       	andi	r24, 0x01	; 1
     aa6:	08 95       	ret
     aa8:	80 b3       	in	r24, 0x10	; 16
     aaa:	90 e0       	ldi	r25, 0x00	; 0
     aac:	02 c0       	rjmp	.+4      	; 0xab2 <MDIO_u8GetPinValue+0x38>
     aae:	95 95       	asr	r25
     ab0:	87 95       	ror	r24
     ab2:	6a 95       	dec	r22
     ab4:	e2 f7       	brpl	.-8      	; 0xaae <MDIO_u8GetPinValue+0x34>
     ab6:	81 70       	andi	r24, 0x01	; 1
     ab8:	08 95       	ret

00000aba <MDIO_u8GetPortValue>:
     aba:	81 30       	cpi	r24, 0x01	; 1
     abc:	51 f0       	breq	.+20     	; 0xad2 <MDIO_u8GetPortValue+0x18>
     abe:	81 30       	cpi	r24, 0x01	; 1
     ac0:	30 f0       	brcs	.+12     	; 0xace <MDIO_u8GetPortValue+0x14>
     ac2:	82 30       	cpi	r24, 0x02	; 2
     ac4:	41 f0       	breq	.+16     	; 0xad6 <MDIO_u8GetPortValue+0x1c>
     ac6:	83 30       	cpi	r24, 0x03	; 3
     ac8:	41 f0       	breq	.+16     	; 0xada <MDIO_u8GetPortValue+0x20>
     aca:	80 e0       	ldi	r24, 0x00	; 0
     acc:	08 95       	ret
     ace:	8b b3       	in	r24, 0x1b	; 27
     ad0:	08 95       	ret
     ad2:	88 b3       	in	r24, 0x18	; 24
     ad4:	08 95       	ret
     ad6:	85 b3       	in	r24, 0x15	; 21
     ad8:	08 95       	ret
     ada:	82 b3       	in	r24, 0x12	; 18
     adc:	08 95       	ret

00000ade <MDIO_vTogglePinValue>:
     ade:	81 30       	cpi	r24, 0x01	; 1
     ae0:	91 f0       	breq	.+36     	; 0xb06 <MDIO_vTogglePinValue+0x28>
     ae2:	81 30       	cpi	r24, 0x01	; 1
     ae4:	28 f0       	brcs	.+10     	; 0xaf0 <MDIO_vTogglePinValue+0x12>
     ae6:	82 30       	cpi	r24, 0x02	; 2
     ae8:	c9 f0       	breq	.+50     	; 0xb1c <MDIO_vTogglePinValue+0x3e>
     aea:	83 30       	cpi	r24, 0x03	; 3
     aec:	61 f5       	brne	.+88     	; 0xb46 <MDIO_vTogglePinValue+0x68>
     aee:	21 c0       	rjmp	.+66     	; 0xb32 <MDIO_vTogglePinValue+0x54>
     af0:	2b b3       	in	r18, 0x1b	; 27
     af2:	81 e0       	ldi	r24, 0x01	; 1
     af4:	90 e0       	ldi	r25, 0x00	; 0
     af6:	02 c0       	rjmp	.+4      	; 0xafc <MDIO_vTogglePinValue+0x1e>
     af8:	88 0f       	add	r24, r24
     afa:	99 1f       	adc	r25, r25
     afc:	6a 95       	dec	r22
     afe:	e2 f7       	brpl	.-8      	; 0xaf8 <MDIO_vTogglePinValue+0x1a>
     b00:	28 27       	eor	r18, r24
     b02:	2b bb       	out	0x1b, r18	; 27
     b04:	08 95       	ret
     b06:	28 b3       	in	r18, 0x18	; 24
     b08:	81 e0       	ldi	r24, 0x01	; 1
     b0a:	90 e0       	ldi	r25, 0x00	; 0
     b0c:	02 c0       	rjmp	.+4      	; 0xb12 <MDIO_vTogglePinValue+0x34>
     b0e:	88 0f       	add	r24, r24
     b10:	99 1f       	adc	r25, r25
     b12:	6a 95       	dec	r22
     b14:	e2 f7       	brpl	.-8      	; 0xb0e <MDIO_vTogglePinValue+0x30>
     b16:	28 27       	eor	r18, r24
     b18:	28 bb       	out	0x18, r18	; 24
     b1a:	08 95       	ret
     b1c:	25 b3       	in	r18, 0x15	; 21
     b1e:	81 e0       	ldi	r24, 0x01	; 1
     b20:	90 e0       	ldi	r25, 0x00	; 0
     b22:	02 c0       	rjmp	.+4      	; 0xb28 <MDIO_vTogglePinValue+0x4a>
     b24:	88 0f       	add	r24, r24
     b26:	99 1f       	adc	r25, r25
     b28:	6a 95       	dec	r22
     b2a:	e2 f7       	brpl	.-8      	; 0xb24 <MDIO_vTogglePinValue+0x46>
     b2c:	28 27       	eor	r18, r24
     b2e:	25 bb       	out	0x15, r18	; 21
     b30:	08 95       	ret
     b32:	22 b3       	in	r18, 0x12	; 18
     b34:	81 e0       	ldi	r24, 0x01	; 1
     b36:	90 e0       	ldi	r25, 0x00	; 0
     b38:	02 c0       	rjmp	.+4      	; 0xb3e <MDIO_vTogglePinValue+0x60>
     b3a:	88 0f       	add	r24, r24
     b3c:	99 1f       	adc	r25, r25
     b3e:	6a 95       	dec	r22
     b40:	e2 f7       	brpl	.-8      	; 0xb3a <MDIO_vTogglePinValue+0x5c>
     b42:	28 27       	eor	r18, r24
     b44:	22 bb       	out	0x12, r18	; 18
     b46:	08 95       	ret

00000b48 <MDIO_s32MappingValue>:
     b48:	0f 93       	push	r16
     b4a:	1f 93       	push	r17
     b4c:	02 1b       	sub	r16, r18
     b4e:	13 0b       	sbc	r17, r19
     b50:	86 1b       	sub	r24, r22
     b52:	97 0b       	sbc	r25, r23
     b54:	46 1b       	sub	r20, r22
     b56:	57 0b       	sbc	r21, r23
     b58:	bc 01       	movw	r22, r24
     b5a:	06 9f       	mul	r16, r22
     b5c:	c0 01       	movw	r24, r0
     b5e:	07 9f       	mul	r16, r23
     b60:	90 0d       	add	r25, r0
     b62:	16 9f       	mul	r17, r22
     b64:	90 0d       	add	r25, r0
     b66:	11 24       	eor	r1, r1
     b68:	ba 01       	movw	r22, r20
     b6a:	0e 94 1d 09 	call	0x123a	; 0x123a <__divmodhi4>
     b6e:	62 0f       	add	r22, r18
     b70:	73 1f       	adc	r23, r19
     b72:	cb 01       	movw	r24, r22
     b74:	1f 91       	pop	r17
     b76:	0f 91       	pop	r16
     b78:	08 95       	ret

00000b7a <MADC_vInit>:
     b7a:	3f 98       	cbi	0x07, 7	; 7
     b7c:	3e 9a       	sbi	0x07, 6	; 7
     b7e:	3d 98       	cbi	0x07, 5	; 7
     b80:	86 b1       	in	r24, 0x06	; 6
     b82:	88 7f       	andi	r24, 0xF8	; 248
     b84:	86 60       	ori	r24, 0x06	; 6
     b86:	86 b9       	out	0x06, r24	; 6
     b88:	35 98       	cbi	0x06, 5	; 6
     b8a:	80 b7       	in	r24, 0x30	; 48
     b8c:	8f 71       	andi	r24, 0x1F	; 31
     b8e:	80 bf       	out	0x30, r24	; 48
     b90:	33 98       	cbi	0x06, 3	; 6
     b92:	37 9a       	sbi	0x06, 7	; 6
     b94:	08 95       	ret

00000b96 <MADC_u16ConvertAnalog_to_Digital>:
     b96:	97 b1       	in	r25, 0x07	; 7
     b98:	8f 71       	andi	r24, 0x1F	; 31
     b9a:	90 7e       	andi	r25, 0xE0	; 224
     b9c:	89 2b       	or	r24, r25
     b9e:	87 b9       	out	0x07, r24	; 7
     ba0:	36 9a       	sbi	0x06, 6	; 6
     ba2:	34 9b       	sbis	0x06, 4	; 6
     ba4:	fe cf       	rjmp	.-4      	; 0xba2 <MADC_u16ConvertAnalog_to_Digital+0xc>
     ba6:	34 9a       	sbi	0x06, 4	; 6
     ba8:	24 b1       	in	r18, 0x04	; 4
     baa:	35 b1       	in	r19, 0x05	; 5
     bac:	c9 01       	movw	r24, r18
     bae:	08 95       	ret

00000bb0 <MADC_vStartConversion>:
     bb0:	97 b1       	in	r25, 0x07	; 7
     bb2:	8f 71       	andi	r24, 0x1F	; 31
     bb4:	90 7e       	andi	r25, 0xE0	; 224
     bb6:	89 2b       	or	r24, r25
     bb8:	87 b9       	out	0x07, r24	; 7
     bba:	36 9a       	sbi	0x06, 6	; 6
     bbc:	08 95       	ret

00000bbe <MADC_GetADCData>:
     bbe:	24 b1       	in	r18, 0x04	; 4
     bc0:	35 b1       	in	r19, 0x05	; 5
     bc2:	c9 01       	movw	r24, r18
     bc4:	08 95       	ret

00000bc6 <MADC_vSetCallBack>:
     bc6:	90 93 97 00 	sts	0x0097, r25
     bca:	80 93 96 00 	sts	0x0096, r24
     bce:	08 95       	ret

00000bd0 <HSSD_vTurnOFF>:
     bd0:	80 e0       	ldi	r24, 0x00	; 0
     bd2:	60 e0       	ldi	r22, 0x00	; 0
     bd4:	0e 94 2c 05 	call	0xa58	; 0xa58 <MDIO_vSetPortValue>
     bd8:	08 95       	ret

00000bda <HSSD_vDispNum>:
     bda:	0f 93       	push	r16
     bdc:	1f 93       	push	r17
     bde:	08 2f       	mov	r16, r24
     be0:	16 2f       	mov	r17, r22
     be2:	6a 30       	cpi	r22, 0x0A	; 10
     be4:	58 f4       	brcc	.+22     	; 0xbfc <HSSD_vDispNum+0x22>
     be6:	61 e0       	ldi	r22, 0x01	; 1
     be8:	0e 94 a8 04 	call	0x950	; 0x950 <MDIO_vSetPortDirection>
     bec:	e1 2f       	mov	r30, r17
     bee:	f0 e0       	ldi	r31, 0x00	; 0
     bf0:	e0 59       	subi	r30, 0x90	; 144
     bf2:	ff 4f       	sbci	r31, 0xFF	; 255
     bf4:	80 2f       	mov	r24, r16
     bf6:	60 81       	ld	r22, Z
     bf8:	0e 94 2c 05 	call	0xa58	; 0xa58 <MDIO_vSetPortValue>
     bfc:	1f 91       	pop	r17
     bfe:	0f 91       	pop	r16
     c00:	08 95       	ret

00000c02 <HLM35_u16GetTemperature>:
     c02:	ff 92       	push	r15
     c04:	0f 93       	push	r16
     c06:	1f 93       	push	r17
     c08:	8b 01       	movw	r16, r22
     c0a:	f4 2e       	mov	r15, r20
     c0c:	80 e0       	ldi	r24, 0x00	; 0
     c0e:	0e 94 cb 05 	call	0xb96	; 0xb96 <MADC_u16ConvertAnalog_to_Digital>
     c12:	24 e6       	ldi	r18, 0x64	; 100
     c14:	30 e0       	ldi	r19, 0x00	; 0
     c16:	ac 01       	movw	r20, r24
     c18:	42 9f       	mul	r20, r18
     c1a:	c0 01       	movw	r24, r0
     c1c:	43 9f       	mul	r20, r19
     c1e:	90 0d       	add	r25, r0
     c20:	52 9f       	mul	r21, r18
     c22:	90 0d       	add	r25, r0
     c24:	11 24       	eor	r1, r1
     c26:	80 9f       	mul	r24, r16
     c28:	90 01       	movw	r18, r0
     c2a:	81 9f       	mul	r24, r17
     c2c:	30 0d       	add	r19, r0
     c2e:	90 9f       	mul	r25, r16
     c30:	30 0d       	add	r19, r0
     c32:	11 24       	eor	r1, r1
     c34:	02 c0       	rjmp	.+4      	; 0xc3a <HLM35_u16GetTemperature+0x38>
     c36:	36 95       	lsr	r19
     c38:	27 95       	ror	r18
     c3a:	fa 94       	dec	r15
     c3c:	e2 f7       	brpl	.-8      	; 0xc36 <HLM35_u16GetTemperature+0x34>
     c3e:	c9 01       	movw	r24, r18
     c40:	1f 91       	pop	r17
     c42:	0f 91       	pop	r16
     c44:	ff 90       	pop	r15
     c46:	08 95       	ret

00000c48 <HLCD_vSendData>:
     c48:	ff 92       	push	r15
     c4a:	0f 93       	push	r16
     c4c:	1f 93       	push	r17
     c4e:	f8 2e       	mov	r15, r24
     c50:	81 e0       	ldi	r24, 0x01	; 1
     c52:	60 e0       	ldi	r22, 0x00	; 0
     c54:	41 e0       	ldi	r20, 0x01	; 1
     c56:	0e 94 b9 04 	call	0x972	; 0x972 <MDIO_vSetPinValue>
     c5a:	81 e0       	ldi	r24, 0x01	; 1
     c5c:	61 e0       	ldi	r22, 0x01	; 1
     c5e:	40 e0       	ldi	r20, 0x00	; 0
     c60:	0e 94 b9 04 	call	0x972	; 0x972 <MDIO_vSetPinValue>
     c64:	00 ed       	ldi	r16, 0xD0	; 208
     c66:	17 e0       	ldi	r17, 0x07	; 7
     c68:	c8 01       	movw	r24, r16
     c6a:	01 97       	sbiw	r24, 0x01	; 1
     c6c:	f1 f7       	brne	.-4      	; 0xc6a <HLCD_vSendData+0x22>
     c6e:	82 e0       	ldi	r24, 0x02	; 2
     c70:	6f 2d       	mov	r22, r15
     c72:	0e 94 2c 05 	call	0xa58	; 0xa58 <MDIO_vSetPortValue>
     c76:	c8 01       	movw	r24, r16
     c78:	01 97       	sbiw	r24, 0x01	; 1
     c7a:	f1 f7       	brne	.-4      	; 0xc78 <HLCD_vSendData+0x30>
     c7c:	81 e0       	ldi	r24, 0x01	; 1
     c7e:	62 e0       	ldi	r22, 0x02	; 2
     c80:	41 e0       	ldi	r20, 0x01	; 1
     c82:	0e 94 b9 04 	call	0x972	; 0x972 <MDIO_vSetPinValue>
     c86:	c8 01       	movw	r24, r16
     c88:	01 97       	sbiw	r24, 0x01	; 1
     c8a:	f1 f7       	brne	.-4      	; 0xc88 <HLCD_vSendData+0x40>
     c8c:	81 e0       	ldi	r24, 0x01	; 1
     c8e:	62 e0       	ldi	r22, 0x02	; 2
     c90:	40 e0       	ldi	r20, 0x00	; 0
     c92:	0e 94 b9 04 	call	0x972	; 0x972 <MDIO_vSetPinValue>
     c96:	c8 01       	movw	r24, r16
     c98:	01 97       	sbiw	r24, 0x01	; 1
     c9a:	f1 f7       	brne	.-4      	; 0xc98 <HLCD_vSendData+0x50>
     c9c:	1f 91       	pop	r17
     c9e:	0f 91       	pop	r16
     ca0:	ff 90       	pop	r15
     ca2:	08 95       	ret

00000ca4 <HLCD_vDispNumber>:
     ca4:	cf 92       	push	r12
     ca6:	df 92       	push	r13
     ca8:	ff 92       	push	r15
     caa:	0f 93       	push	r16
     cac:	1f 93       	push	r17
     cae:	df 93       	push	r29
     cb0:	cf 93       	push	r28
     cb2:	cd b7       	in	r28, 0x3d	; 61
     cb4:	de b7       	in	r29, 0x3e	; 62
     cb6:	2a 97       	sbiw	r28, 0x0a	; 10
     cb8:	0f b6       	in	r0, 0x3f	; 63
     cba:	f8 94       	cli
     cbc:	de bf       	out	0x3e, r29	; 62
     cbe:	0f be       	out	0x3f, r0	; 63
     cc0:	cd bf       	out	0x3d, r28	; 61
     cc2:	8c 01       	movw	r16, r24
     cc4:	97 ff       	sbrs	r25, 7
     cc6:	07 c0       	rjmp	.+14     	; 0xcd6 <HLCD_vDispNumber+0x32>
     cc8:	8d e2       	ldi	r24, 0x2D	; 45
     cca:	0e 94 24 06 	call	0xc48	; 0xc48 <HLCD_vSendData>
     cce:	10 95       	com	r17
     cd0:	01 95       	neg	r16
     cd2:	1f 4f       	sbci	r17, 0xFF	; 255
     cd4:	05 c0       	rjmp	.+10     	; 0xce0 <HLCD_vDispNumber+0x3c>
     cd6:	00 97       	sbiw	r24, 0x00	; 0
     cd8:	19 f4       	brne	.+6      	; 0xce0 <HLCD_vDispNumber+0x3c>
     cda:	80 e3       	ldi	r24, 0x30	; 48
     cdc:	0e 94 24 06 	call	0xc48	; 0xc48 <HLCD_vSendData>
     ce0:	fe 01       	movw	r30, r28
     ce2:	31 96       	adiw	r30, 0x01	; 1
     ce4:	8a e0       	ldi	r24, 0x0A	; 10
     ce6:	df 01       	movw	r26, r30
     ce8:	1d 92       	st	X+, r1
     cea:	8a 95       	dec	r24
     cec:	e9 f7       	brne	.-6      	; 0xce8 <HLCD_vDispNumber+0x44>
     cee:	40 e0       	ldi	r20, 0x00	; 0
     cf0:	6f 01       	movw	r12, r30
     cf2:	10 c0       	rjmp	.+32     	; 0xd14 <HLCD_vDispNumber+0x70>
     cf4:	f6 01       	movw	r30, r12
     cf6:	e4 0f       	add	r30, r20
     cf8:	f1 1d       	adc	r31, r1
     cfa:	c8 01       	movw	r24, r16
     cfc:	6a e0       	ldi	r22, 0x0A	; 10
     cfe:	70 e0       	ldi	r23, 0x00	; 0
     d00:	0e 94 1d 09 	call	0x123a	; 0x123a <__divmodhi4>
     d04:	80 83       	st	Z, r24
     d06:	c8 01       	movw	r24, r16
     d08:	6a e0       	ldi	r22, 0x0A	; 10
     d0a:	70 e0       	ldi	r23, 0x00	; 0
     d0c:	0e 94 1d 09 	call	0x123a	; 0x123a <__divmodhi4>
     d10:	8b 01       	movw	r16, r22
     d12:	4f 5f       	subi	r20, 0xFF	; 255
     d14:	01 15       	cp	r16, r1
     d16:	11 05       	cpc	r17, r1
     d18:	69 f7       	brne	.-38     	; 0xcf4 <HLCD_vDispNumber+0x50>
     d1a:	f4 2e       	mov	r15, r20
     d1c:	fa 94       	dec	r15
     d1e:	0f 2d       	mov	r16, r15
     d20:	11 27       	eor	r17, r17
     d22:	07 fd       	sbrc	r16, 7
     d24:	10 95       	com	r17
     d26:	0c 0d       	add	r16, r12
     d28:	1d 1d       	adc	r17, r13
     d2a:	08 c0       	rjmp	.+16     	; 0xd3c <HLCD_vDispNumber+0x98>
     d2c:	f8 01       	movw	r30, r16
     d2e:	80 81       	ld	r24, Z
     d30:	80 5d       	subi	r24, 0xD0	; 208
     d32:	0e 94 24 06 	call	0xc48	; 0xc48 <HLCD_vSendData>
     d36:	fa 94       	dec	r15
     d38:	01 50       	subi	r16, 0x01	; 1
     d3a:	10 40       	sbci	r17, 0x00	; 0
     d3c:	f7 fe       	sbrs	r15, 7
     d3e:	f6 cf       	rjmp	.-20     	; 0xd2c <HLCD_vDispNumber+0x88>
     d40:	2a 96       	adiw	r28, 0x0a	; 10
     d42:	0f b6       	in	r0, 0x3f	; 63
     d44:	f8 94       	cli
     d46:	de bf       	out	0x3e, r29	; 62
     d48:	0f be       	out	0x3f, r0	; 63
     d4a:	cd bf       	out	0x3d, r28	; 61
     d4c:	cf 91       	pop	r28
     d4e:	df 91       	pop	r29
     d50:	1f 91       	pop	r17
     d52:	0f 91       	pop	r16
     d54:	ff 90       	pop	r15
     d56:	df 90       	pop	r13
     d58:	cf 90       	pop	r12
     d5a:	08 95       	ret

00000d5c <HLCD_vDispString>:
     d5c:	1f 93       	push	r17
     d5e:	cf 93       	push	r28
     d60:	df 93       	push	r29
     d62:	ec 01       	movw	r28, r24
     d64:	10 e0       	ldi	r17, 0x00	; 0
     d66:	03 c0       	rjmp	.+6      	; 0xd6e <HLCD_vDispString+0x12>
     d68:	0e 94 24 06 	call	0xc48	; 0xc48 <HLCD_vSendData>
     d6c:	1f 5f       	subi	r17, 0xFF	; 255
     d6e:	fe 01       	movw	r30, r28
     d70:	e1 0f       	add	r30, r17
     d72:	f1 1d       	adc	r31, r1
     d74:	80 81       	ld	r24, Z
     d76:	88 23       	and	r24, r24
     d78:	b9 f7       	brne	.-18     	; 0xd68 <HLCD_vDispString+0xc>
     d7a:	df 91       	pop	r29
     d7c:	cf 91       	pop	r28
     d7e:	1f 91       	pop	r17
     d80:	08 95       	ret

00000d82 <HLCD_vSendCommand>:
     d82:	ff 92       	push	r15
     d84:	0f 93       	push	r16
     d86:	1f 93       	push	r17
     d88:	f8 2e       	mov	r15, r24
     d8a:	81 e0       	ldi	r24, 0x01	; 1
     d8c:	60 e0       	ldi	r22, 0x00	; 0
     d8e:	40 e0       	ldi	r20, 0x00	; 0
     d90:	0e 94 b9 04 	call	0x972	; 0x972 <MDIO_vSetPinValue>
     d94:	81 e0       	ldi	r24, 0x01	; 1
     d96:	61 e0       	ldi	r22, 0x01	; 1
     d98:	40 e0       	ldi	r20, 0x00	; 0
     d9a:	0e 94 b9 04 	call	0x972	; 0x972 <MDIO_vSetPinValue>
     d9e:	00 ed       	ldi	r16, 0xD0	; 208
     da0:	17 e0       	ldi	r17, 0x07	; 7
     da2:	c8 01       	movw	r24, r16
     da4:	01 97       	sbiw	r24, 0x01	; 1
     da6:	f1 f7       	brne	.-4      	; 0xda4 <HLCD_vSendCommand+0x22>
     da8:	82 e0       	ldi	r24, 0x02	; 2
     daa:	6f 2d       	mov	r22, r15
     dac:	0e 94 2c 05 	call	0xa58	; 0xa58 <MDIO_vSetPortValue>
     db0:	c8 01       	movw	r24, r16
     db2:	01 97       	sbiw	r24, 0x01	; 1
     db4:	f1 f7       	brne	.-4      	; 0xdb2 <HLCD_vSendCommand+0x30>
     db6:	81 e0       	ldi	r24, 0x01	; 1
     db8:	62 e0       	ldi	r22, 0x02	; 2
     dba:	41 e0       	ldi	r20, 0x01	; 1
     dbc:	0e 94 b9 04 	call	0x972	; 0x972 <MDIO_vSetPinValue>
     dc0:	c8 01       	movw	r24, r16
     dc2:	01 97       	sbiw	r24, 0x01	; 1
     dc4:	f1 f7       	brne	.-4      	; 0xdc2 <HLCD_vSendCommand+0x40>
     dc6:	81 e0       	ldi	r24, 0x01	; 1
     dc8:	62 e0       	ldi	r22, 0x02	; 2
     dca:	40 e0       	ldi	r20, 0x00	; 0
     dcc:	0e 94 b9 04 	call	0x972	; 0x972 <MDIO_vSetPinValue>
     dd0:	c8 01       	movw	r24, r16
     dd2:	01 97       	sbiw	r24, 0x01	; 1
     dd4:	f1 f7       	brne	.-4      	; 0xdd2 <HLCD_vSendCommand+0x50>
     dd6:	1f 91       	pop	r17
     dd8:	0f 91       	pop	r16
     dda:	ff 90       	pop	r15
     ddc:	08 95       	ret

00000dde <HLCD_vSetCursorBlinkingOFF>:
     dde:	88 e8       	ldi	r24, 0x88	; 136
     de0:	93 e1       	ldi	r25, 0x13	; 19
     de2:	28 ec       	ldi	r18, 0xC8	; 200
     de4:	30 e0       	ldi	r19, 0x00	; 0
     de6:	f9 01       	movw	r30, r18
     de8:	31 97       	sbiw	r30, 0x01	; 1
     dea:	f1 f7       	brne	.-4      	; 0xde8 <HLCD_vSetCursorBlinkingOFF+0xa>
     dec:	01 97       	sbiw	r24, 0x01	; 1
     dee:	d9 f7       	brne	.-10     	; 0xde6 <HLCD_vSetCursorBlinkingOFF+0x8>
     df0:	8e e0       	ldi	r24, 0x0E	; 14
     df2:	0e 94 c1 06 	call	0xd82	; 0xd82 <HLCD_vSendCommand>
     df6:	88 e8       	ldi	r24, 0x88	; 136
     df8:	93 e1       	ldi	r25, 0x13	; 19
     dfa:	28 ec       	ldi	r18, 0xC8	; 200
     dfc:	30 e0       	ldi	r19, 0x00	; 0
     dfe:	f9 01       	movw	r30, r18
     e00:	31 97       	sbiw	r30, 0x01	; 1
     e02:	f1 f7       	brne	.-4      	; 0xe00 <HLCD_vSetCursorBlinkingOFF+0x22>
     e04:	01 97       	sbiw	r24, 0x01	; 1
     e06:	d9 f7       	brne	.-10     	; 0xdfe <HLCD_vSetCursorBlinkingOFF+0x20>
     e08:	08 95       	ret

00000e0a <HLCD_vDispCursorWithBlinking>:
     e0a:	88 e8       	ldi	r24, 0x88	; 136
     e0c:	93 e1       	ldi	r25, 0x13	; 19
     e0e:	28 ec       	ldi	r18, 0xC8	; 200
     e10:	30 e0       	ldi	r19, 0x00	; 0
     e12:	f9 01       	movw	r30, r18
     e14:	31 97       	sbiw	r30, 0x01	; 1
     e16:	f1 f7       	brne	.-4      	; 0xe14 <HLCD_vDispCursorWithBlinking+0xa>
     e18:	01 97       	sbiw	r24, 0x01	; 1
     e1a:	d9 f7       	brne	.-10     	; 0xe12 <HLCD_vDispCursorWithBlinking+0x8>
     e1c:	8f e0       	ldi	r24, 0x0F	; 15
     e1e:	0e 94 c1 06 	call	0xd82	; 0xd82 <HLCD_vSendCommand>
     e22:	88 e8       	ldi	r24, 0x88	; 136
     e24:	93 e1       	ldi	r25, 0x13	; 19
     e26:	28 ec       	ldi	r18, 0xC8	; 200
     e28:	30 e0       	ldi	r19, 0x00	; 0
     e2a:	f9 01       	movw	r30, r18
     e2c:	31 97       	sbiw	r30, 0x01	; 1
     e2e:	f1 f7       	brne	.-4      	; 0xe2c <HLCD_vDispCursorWithBlinking+0x22>
     e30:	01 97       	sbiw	r24, 0x01	; 1
     e32:	d9 f7       	brne	.-10     	; 0xe2a <HLCD_vDispCursorWithBlinking+0x20>
     e34:	08 95       	ret

00000e36 <HLCD_vSetDispOFF>:
     e36:	88 e8       	ldi	r24, 0x88	; 136
     e38:	93 e1       	ldi	r25, 0x13	; 19
     e3a:	28 ec       	ldi	r18, 0xC8	; 200
     e3c:	30 e0       	ldi	r19, 0x00	; 0
     e3e:	f9 01       	movw	r30, r18
     e40:	31 97       	sbiw	r30, 0x01	; 1
     e42:	f1 f7       	brne	.-4      	; 0xe40 <HLCD_vSetDispOFF+0xa>
     e44:	01 97       	sbiw	r24, 0x01	; 1
     e46:	d9 f7       	brne	.-10     	; 0xe3e <HLCD_vSetDispOFF+0x8>
     e48:	88 e0       	ldi	r24, 0x08	; 8
     e4a:	0e 94 c1 06 	call	0xd82	; 0xd82 <HLCD_vSendCommand>
     e4e:	88 e8       	ldi	r24, 0x88	; 136
     e50:	93 e1       	ldi	r25, 0x13	; 19
     e52:	28 ec       	ldi	r18, 0xC8	; 200
     e54:	30 e0       	ldi	r19, 0x00	; 0
     e56:	f9 01       	movw	r30, r18
     e58:	31 97       	sbiw	r30, 0x01	; 1
     e5a:	f1 f7       	brne	.-4      	; 0xe58 <HLCD_vSetDispOFF+0x22>
     e5c:	01 97       	sbiw	r24, 0x01	; 1
     e5e:	d9 f7       	brne	.-10     	; 0xe56 <HLCD_vSetDispOFF+0x20>
     e60:	08 95       	ret

00000e62 <HLCD_vSetShiftLeftOn>:
     e62:	88 e8       	ldi	r24, 0x88	; 136
     e64:	93 e1       	ldi	r25, 0x13	; 19
     e66:	28 ec       	ldi	r18, 0xC8	; 200
     e68:	30 e0       	ldi	r19, 0x00	; 0
     e6a:	f9 01       	movw	r30, r18
     e6c:	31 97       	sbiw	r30, 0x01	; 1
     e6e:	f1 f7       	brne	.-4      	; 0xe6c <HLCD_vSetShiftLeftOn+0xa>
     e70:	01 97       	sbiw	r24, 0x01	; 1
     e72:	d9 f7       	brne	.-10     	; 0xe6a <HLCD_vSetShiftLeftOn+0x8>
     e74:	88 e1       	ldi	r24, 0x18	; 24
     e76:	0e 94 c1 06 	call	0xd82	; 0xd82 <HLCD_vSendCommand>
     e7a:	88 e8       	ldi	r24, 0x88	; 136
     e7c:	93 e1       	ldi	r25, 0x13	; 19
     e7e:	28 ec       	ldi	r18, 0xC8	; 200
     e80:	30 e0       	ldi	r19, 0x00	; 0
     e82:	f9 01       	movw	r30, r18
     e84:	31 97       	sbiw	r30, 0x01	; 1
     e86:	f1 f7       	brne	.-4      	; 0xe84 <HLCD_vSetShiftLeftOn+0x22>
     e88:	01 97       	sbiw	r24, 0x01	; 1
     e8a:	d9 f7       	brne	.-10     	; 0xe82 <HLCD_vSetShiftLeftOn+0x20>
     e8c:	08 95       	ret

00000e8e <HLCD_vDispShiftLeftString>:
     e8e:	0f 93       	push	r16
     e90:	1f 93       	push	r17
     e92:	cf 93       	push	r28
     e94:	df 93       	push	r29
     e96:	ec 01       	movw	r28, r24
     e98:	00 e0       	ldi	r16, 0x00	; 0
     e9a:	03 c0       	rjmp	.+6      	; 0xea2 <HLCD_vDispShiftLeftString+0x14>
     e9c:	0e 94 24 06 	call	0xc48	; 0xc48 <HLCD_vSendData>
     ea0:	0f 5f       	subi	r16, 0xFF	; 255
     ea2:	fe 01       	movw	r30, r28
     ea4:	e0 0f       	add	r30, r16
     ea6:	f1 1d       	adc	r31, r1
     ea8:	80 81       	ld	r24, Z
     eaa:	88 23       	and	r24, r24
     eac:	b9 f7       	brne	.-18     	; 0xe9c <HLCD_vDispShiftLeftString+0xe>
     eae:	88 e8       	ldi	r24, 0x88	; 136
     eb0:	93 e1       	ldi	r25, 0x13	; 19
     eb2:	28 ec       	ldi	r18, 0xC8	; 200
     eb4:	30 e0       	ldi	r19, 0x00	; 0
     eb6:	f9 01       	movw	r30, r18
     eb8:	31 97       	sbiw	r30, 0x01	; 1
     eba:	f1 f7       	brne	.-4      	; 0xeb8 <HLCD_vDispShiftLeftString+0x2a>
     ebc:	01 97       	sbiw	r24, 0x01	; 1
     ebe:	d9 f7       	brne	.-10     	; 0xeb6 <HLCD_vDispShiftLeftString+0x28>
     ec0:	01 31       	cpi	r16, 0x11	; 17
     ec2:	68 f0       	brcs	.+26     	; 0xede <HLCD_vDispShiftLeftString+0x50>
     ec4:	10 e0       	ldi	r17, 0x00	; 0
     ec6:	c0 2f       	mov	r28, r16
     ec8:	d0 e0       	ldi	r29, 0x00	; 0
     eca:	60 97       	sbiw	r28, 0x10	; 16
     ecc:	03 c0       	rjmp	.+6      	; 0xed4 <HLCD_vDispShiftLeftString+0x46>
     ece:	0e 94 31 07 	call	0xe62	; 0xe62 <HLCD_vSetShiftLeftOn>
     ed2:	1f 5f       	subi	r17, 0xFF	; 255
     ed4:	81 2f       	mov	r24, r17
     ed6:	90 e0       	ldi	r25, 0x00	; 0
     ed8:	8c 17       	cp	r24, r28
     eda:	9d 07       	cpc	r25, r29
     edc:	c4 f3       	brlt	.-16     	; 0xece <HLCD_vDispShiftLeftString+0x40>
     ede:	df 91       	pop	r29
     ee0:	cf 91       	pop	r28
     ee2:	1f 91       	pop	r17
     ee4:	0f 91       	pop	r16
     ee6:	08 95       	ret

00000ee8 <HLCD_vGoTo>:
     ee8:	82 30       	cpi	r24, 0x02	; 2
     eea:	80 f4       	brcc	.+32     	; 0xf0c <HLCD_vGoTo+0x24>
     eec:	60 31       	cpi	r22, 0x10	; 16
     eee:	70 f4       	brcc	.+28     	; 0xf0c <HLCD_vGoTo+0x24>
     ef0:	88 23       	and	r24, r24
     ef2:	19 f0       	breq	.+6      	; 0xefa <HLCD_vGoTo+0x12>
     ef4:	81 30       	cpi	r24, 0x01	; 1
     ef6:	51 f4       	brne	.+20     	; 0xf0c <HLCD_vGoTo+0x24>
     ef8:	05 c0       	rjmp	.+10     	; 0xf04 <HLCD_vGoTo+0x1c>
     efa:	86 2f       	mov	r24, r22
     efc:	80 58       	subi	r24, 0x80	; 128
     efe:	0e 94 c1 06 	call	0xd82	; 0xd82 <HLCD_vSendCommand>
     f02:	08 95       	ret
     f04:	86 2f       	mov	r24, r22
     f06:	80 54       	subi	r24, 0x40	; 64
     f08:	0e 94 c1 06 	call	0xd82	; 0xd82 <HLCD_vSendCommand>
     f0c:	08 95       	ret

00000f0e <HLCD_vSaveCustomChar>:
     f0e:	0f 93       	push	r16
     f10:	1f 93       	push	r17
     f12:	cf 93       	push	r28
     f14:	df 93       	push	r29
     f16:	8b 01       	movw	r16, r22
     f18:	88 0f       	add	r24, r24
     f1a:	88 0f       	add	r24, r24
     f1c:	88 0f       	add	r24, r24
     f1e:	80 5c       	subi	r24, 0xC0	; 192
     f20:	0e 94 c1 06 	call	0xd82	; 0xd82 <HLCD_vSendCommand>
     f24:	c0 e0       	ldi	r28, 0x00	; 0
     f26:	d0 e0       	ldi	r29, 0x00	; 0
     f28:	f8 01       	movw	r30, r16
     f2a:	ec 0f       	add	r30, r28
     f2c:	fd 1f       	adc	r31, r29
     f2e:	80 81       	ld	r24, Z
     f30:	0e 94 24 06 	call	0xc48	; 0xc48 <HLCD_vSendData>
     f34:	21 96       	adiw	r28, 0x01	; 1
     f36:	c8 30       	cpi	r28, 0x08	; 8
     f38:	d1 05       	cpc	r29, r1
     f3a:	b1 f7       	brne	.-20     	; 0xf28 <HLCD_vSaveCustomChar+0x1a>
     f3c:	80 e8       	ldi	r24, 0x80	; 128
     f3e:	0e 94 c1 06 	call	0xd82	; 0xd82 <HLCD_vSendCommand>
     f42:	df 91       	pop	r29
     f44:	cf 91       	pop	r28
     f46:	1f 91       	pop	r17
     f48:	0f 91       	pop	r16
     f4a:	08 95       	ret

00000f4c <HLCD_vClear>:
     f4c:	81 e0       	ldi	r24, 0x01	; 1
     f4e:	8a 95       	dec	r24
     f50:	f1 f7       	brne	.-4      	; 0xf4e <HLCD_vClear+0x2>
     f52:	81 e0       	ldi	r24, 0x01	; 1
     f54:	0e 94 c1 06 	call	0xd82	; 0xd82 <HLCD_vSendCommand>
     f58:	80 ed       	ldi	r24, 0xD0	; 208
     f5a:	97 e0       	ldi	r25, 0x07	; 7
     f5c:	01 97       	sbiw	r24, 0x01	; 1
     f5e:	f1 f7       	brne	.-4      	; 0xf5c <HLCD_vClear+0x10>
     f60:	08 95       	ret

00000f62 <HLCD_vInit>:
     f62:	0f 93       	push	r16
     f64:	1f 93       	push	r17
     f66:	80 e1       	ldi	r24, 0x10	; 16
     f68:	97 e2       	ldi	r25, 0x27	; 39
     f6a:	28 ec       	ldi	r18, 0xC8	; 200
     f6c:	30 e0       	ldi	r19, 0x00	; 0
     f6e:	f9 01       	movw	r30, r18
     f70:	31 97       	sbiw	r30, 0x01	; 1
     f72:	f1 f7       	brne	.-4      	; 0xf70 <HLCD_vInit+0xe>
     f74:	01 97       	sbiw	r24, 0x01	; 1
     f76:	d9 f7       	brne	.-10     	; 0xf6e <HLCD_vInit+0xc>
     f78:	81 e0       	ldi	r24, 0x01	; 1
     f7a:	60 e0       	ldi	r22, 0x00	; 0
     f7c:	41 e0       	ldi	r20, 0x01	; 1
     f7e:	0e 94 35 04 	call	0x86a	; 0x86a <MDIO_vSetPinDirection>
     f82:	81 e0       	ldi	r24, 0x01	; 1
     f84:	61 e0       	ldi	r22, 0x01	; 1
     f86:	41 e0       	ldi	r20, 0x01	; 1
     f88:	0e 94 35 04 	call	0x86a	; 0x86a <MDIO_vSetPinDirection>
     f8c:	81 e0       	ldi	r24, 0x01	; 1
     f8e:	62 e0       	ldi	r22, 0x02	; 2
     f90:	41 e0       	ldi	r20, 0x01	; 1
     f92:	0e 94 35 04 	call	0x86a	; 0x86a <MDIO_vSetPinDirection>
     f96:	82 e0       	ldi	r24, 0x02	; 2
     f98:	6f ef       	ldi	r22, 0xFF	; 255
     f9a:	0e 94 a8 04 	call	0x950	; 0x950 <MDIO_vSetPortDirection>
     f9e:	84 ef       	ldi	r24, 0xF4	; 244
     fa0:	91 e0       	ldi	r25, 0x01	; 1
     fa2:	28 ec       	ldi	r18, 0xC8	; 200
     fa4:	30 e0       	ldi	r19, 0x00	; 0
     fa6:	f9 01       	movw	r30, r18
     fa8:	31 97       	sbiw	r30, 0x01	; 1
     faa:	f1 f7       	brne	.-4      	; 0xfa8 <HLCD_vInit+0x46>
     fac:	01 97       	sbiw	r24, 0x01	; 1
     fae:	d9 f7       	brne	.-10     	; 0xfa6 <HLCD_vInit+0x44>
     fb0:	88 e3       	ldi	r24, 0x38	; 56
     fb2:	0e 94 c1 06 	call	0xd82	; 0xd82 <HLCD_vSendCommand>
     fb6:	00 ed       	ldi	r16, 0xD0	; 208
     fb8:	17 e0       	ldi	r17, 0x07	; 7
     fba:	c8 01       	movw	r24, r16
     fbc:	01 97       	sbiw	r24, 0x01	; 1
     fbe:	f1 f7       	brne	.-4      	; 0xfbc <HLCD_vInit+0x5a>
     fc0:	8c e0       	ldi	r24, 0x0C	; 12
     fc2:	0e 94 c1 06 	call	0xd82	; 0xd82 <HLCD_vSendCommand>
     fc6:	c8 01       	movw	r24, r16
     fc8:	01 97       	sbiw	r24, 0x01	; 1
     fca:	f1 f7       	brne	.-4      	; 0xfc8 <HLCD_vInit+0x66>
     fcc:	81 e0       	ldi	r24, 0x01	; 1
     fce:	0e 94 c1 06 	call	0xd82	; 0xd82 <HLCD_vSendCommand>
     fd2:	80 e7       	ldi	r24, 0x70	; 112
     fd4:	97 e1       	ldi	r25, 0x17	; 23
     fd6:	01 97       	sbiw	r24, 0x01	; 1
     fd8:	f1 f7       	brne	.-4      	; 0xfd6 <HLCD_vInit+0x74>
     fda:	86 e0       	ldi	r24, 0x06	; 6
     fdc:	0e 94 c1 06 	call	0xd82	; 0xd82 <HLCD_vSendCommand>
     fe0:	c8 01       	movw	r24, r16
     fe2:	01 97       	sbiw	r24, 0x01	; 1
     fe4:	f1 f7       	brne	.-4      	; 0xfe2 <HLCD_vInit+0x80>
     fe6:	1f 91       	pop	r17
     fe8:	0f 91       	pop	r16
     fea:	08 95       	ret

00000fec <HKEYPAD_u8Getpressed>:
     fec:	af 92       	push	r10
     fee:	bf 92       	push	r11
     ff0:	df 92       	push	r13
     ff2:	ef 92       	push	r14
     ff4:	ff 92       	push	r15
     ff6:	0f 93       	push	r16
     ff8:	1f 93       	push	r17
     ffa:	cf 93       	push	r28
     ffc:	df 93       	push	r29
     ffe:	ee 24       	eor	r14, r14
    1000:	ea 94       	dec	r14
    1002:	c0 e0       	ldi	r28, 0x00	; 0
    1004:	d0 e0       	ldi	r29, 0x00	; 0
    1006:	90 e1       	ldi	r25, 0x10	; 16
    1008:	a9 2e       	mov	r10, r25
    100a:	97 e2       	ldi	r25, 0x27	; 39
    100c:	b9 2e       	mov	r11, r25
    100e:	dc 2e       	mov	r13, r28
    1010:	83 e0       	ldi	r24, 0x03	; 3
    1012:	6c 2f       	mov	r22, r28
    1014:	40 e0       	ldi	r20, 0x00	; 0
    1016:	0e 94 b9 04 	call	0x972	; 0x972 <MDIO_vSetPinValue>
    101a:	8e 01       	movw	r16, r28
    101c:	00 5a       	subi	r16, 0xA0	; 160
    101e:	1f 4f       	sbci	r17, 0xFF	; 255
    1020:	84 e0       	ldi	r24, 0x04	; 4
    1022:	f8 2e       	mov	r15, r24
    1024:	83 e0       	ldi	r24, 0x03	; 3
    1026:	6f 2d       	mov	r22, r15
    1028:	0e 94 3d 05 	call	0xa7a	; 0xa7a <MDIO_u8GetPinValue>
    102c:	88 23       	and	r24, r24
    102e:	11 f4       	brne	.+4      	; 0x1034 <HKEYPAD_u8Getpressed+0x48>
    1030:	f8 01       	movw	r30, r16
    1032:	e0 80       	ld	r14, Z
    1034:	83 e0       	ldi	r24, 0x03	; 3
    1036:	6f 2d       	mov	r22, r15
    1038:	0e 94 3d 05 	call	0xa7a	; 0xa7a <MDIO_u8GetPinValue>
    103c:	88 23       	and	r24, r24
    103e:	d1 f3       	breq	.-12     	; 0x1034 <HKEYPAD_u8Getpressed+0x48>
    1040:	c5 01       	movw	r24, r10
    1042:	01 97       	sbiw	r24, 0x01	; 1
    1044:	f1 f7       	brne	.-4      	; 0x1042 <HKEYPAD_u8Getpressed+0x56>
    1046:	f3 94       	inc	r15
    1048:	0c 5f       	subi	r16, 0xFC	; 252
    104a:	1f 4f       	sbci	r17, 0xFF	; 255
    104c:	f8 e0       	ldi	r31, 0x08	; 8
    104e:	ff 16       	cp	r15, r31
    1050:	49 f7       	brne	.-46     	; 0x1024 <HKEYPAD_u8Getpressed+0x38>
    1052:	83 e0       	ldi	r24, 0x03	; 3
    1054:	6d 2d       	mov	r22, r13
    1056:	41 e0       	ldi	r20, 0x01	; 1
    1058:	0e 94 b9 04 	call	0x972	; 0x972 <MDIO_vSetPinValue>
    105c:	21 96       	adiw	r28, 0x01	; 1
    105e:	c4 30       	cpi	r28, 0x04	; 4
    1060:	d1 05       	cpc	r29, r1
    1062:	a9 f6       	brne	.-86     	; 0x100e <HKEYPAD_u8Getpressed+0x22>
    1064:	8e 2d       	mov	r24, r14
    1066:	df 91       	pop	r29
    1068:	cf 91       	pop	r28
    106a:	1f 91       	pop	r17
    106c:	0f 91       	pop	r16
    106e:	ff 90       	pop	r15
    1070:	ef 90       	pop	r14
    1072:	df 90       	pop	r13
    1074:	bf 90       	pop	r11
    1076:	af 90       	pop	r10
    1078:	08 95       	ret

0000107a <HKEYPAD_vInit>:
    107a:	83 e0       	ldi	r24, 0x03	; 3
    107c:	6f e0       	ldi	r22, 0x0F	; 15
    107e:	0e 94 a8 04 	call	0x950	; 0x950 <MDIO_vSetPortDirection>
    1082:	83 e0       	ldi	r24, 0x03	; 3
    1084:	6f ef       	ldi	r22, 0xFF	; 255
    1086:	0e 94 2c 05 	call	0xa58	; 0xa58 <MDIO_vSetPortValue>
    108a:	08 95       	ret

0000108c <HDCM_vRotate_CW>:
    108c:	08 95       	ret

0000108e <HDCM_vRotate_CCW>:
    108e:	08 95       	ret

00001090 <HDCM_vStopMotor>:
    1090:	0f 93       	push	r16
    1092:	1f 93       	push	r17
    1094:	18 2f       	mov	r17, r24
    1096:	04 2f       	mov	r16, r20
    1098:	40 e0       	ldi	r20, 0x00	; 0
    109a:	0e 94 b9 04 	call	0x972	; 0x972 <MDIO_vSetPinValue>
    109e:	81 2f       	mov	r24, r17
    10a0:	60 2f       	mov	r22, r16
    10a2:	40 e0       	ldi	r20, 0x00	; 0
    10a4:	0e 94 b9 04 	call	0x972	; 0x972 <MDIO_vSetPinValue>
    10a8:	1f 91       	pop	r17
    10aa:	0f 91       	pop	r16
    10ac:	08 95       	ret

000010ae <HDCM_vRotateMotor>:
    10ae:	ef 92       	push	r14
    10b0:	ff 92       	push	r15
    10b2:	0f 93       	push	r16
    10b4:	1f 93       	push	r17
    10b6:	18 2f       	mov	r17, r24
    10b8:	06 2f       	mov	r16, r22
    10ba:	f4 2e       	mov	r15, r20
    10bc:	e2 2e       	mov	r14, r18
    10be:	41 e0       	ldi	r20, 0x01	; 1
    10c0:	0e 94 35 04 	call	0x86a	; 0x86a <MDIO_vSetPinDirection>
    10c4:	81 2f       	mov	r24, r17
    10c6:	6f 2d       	mov	r22, r15
    10c8:	41 e0       	ldi	r20, 0x01	; 1
    10ca:	0e 94 35 04 	call	0x86a	; 0x86a <MDIO_vSetPinDirection>
    10ce:	81 e0       	ldi	r24, 0x01	; 1
    10d0:	e8 16       	cp	r14, r24
    10d2:	21 f0       	breq	.+8      	; 0x10dc <HDCM_vRotateMotor+0x2e>
    10d4:	82 e0       	ldi	r24, 0x02	; 2
    10d6:	e8 16       	cp	r14, r24
    10d8:	a1 f4       	brne	.+40     	; 0x1102 <HDCM_vRotateMotor+0x54>
    10da:	09 c0       	rjmp	.+18     	; 0x10ee <HDCM_vRotateMotor+0x40>
    10dc:	81 2f       	mov	r24, r17
    10de:	60 2f       	mov	r22, r16
    10e0:	41 e0       	ldi	r20, 0x01	; 1
    10e2:	0e 94 b9 04 	call	0x972	; 0x972 <MDIO_vSetPinValue>
    10e6:	81 2f       	mov	r24, r17
    10e8:	6f 2d       	mov	r22, r15
    10ea:	40 e0       	ldi	r20, 0x00	; 0
    10ec:	08 c0       	rjmp	.+16     	; 0x10fe <HDCM_vRotateMotor+0x50>
    10ee:	81 2f       	mov	r24, r17
    10f0:	60 2f       	mov	r22, r16
    10f2:	40 e0       	ldi	r20, 0x00	; 0
    10f4:	0e 94 b9 04 	call	0x972	; 0x972 <MDIO_vSetPinValue>
    10f8:	81 2f       	mov	r24, r17
    10fa:	6f 2d       	mov	r22, r15
    10fc:	41 e0       	ldi	r20, 0x01	; 1
    10fe:	0e 94 b9 04 	call	0x972	; 0x972 <MDIO_vSetPinValue>
    1102:	1f 91       	pop	r17
    1104:	0f 91       	pop	r16
    1106:	ff 90       	pop	r15
    1108:	ef 90       	pop	r14
    110a:	08 95       	ret

0000110c <ReadPWM>:
    110c:	80 91 a3 00 	lds	r24, 0x00A3
    1110:	8f 5f       	subi	r24, 0xFF	; 255
    1112:	80 93 a3 00 	sts	0x00A3, r24
    1116:	82 30       	cpi	r24, 0x02	; 2
    1118:	79 f0       	breq	.+30     	; 0x1138 <ReadPWM+0x2c>
    111a:	83 30       	cpi	r24, 0x03	; 3
    111c:	29 f1       	breq	.+74     	; 0x1168 <ReadPWM+0x5c>
    111e:	81 30       	cpi	r24, 0x01	; 1
    1120:	09 f0       	breq	.+2      	; 0x1124 <ReadPWM+0x18>
    1122:	3f c0       	rjmp	.+126    	; 0x11a2 <ReadPWM+0x96>
    1124:	0e 94 61 01 	call	0x2c2	; 0x2c2 <MTIMERS_u16GetCapturedValue>
    1128:	90 93 9e 00 	sts	0x009E, r25
    112c:	80 93 9d 00 	sts	0x009D, r24
    1130:	81 e0       	ldi	r24, 0x01	; 1
    1132:	0e 94 78 01 	call	0x2f0	; 0x2f0 <MTIMERS_vSetICU_Trigger>
    1136:	08 95       	ret
    1138:	0e 94 61 01 	call	0x2c2	; 0x2c2 <MTIMERS_u16GetCapturedValue>
    113c:	90 93 a0 00 	sts	0x00A0, r25
    1140:	80 93 9f 00 	sts	0x009F, r24
    1144:	80 e0       	ldi	r24, 0x00	; 0
    1146:	0e 94 78 01 	call	0x2f0	; 0x2f0 <MTIMERS_vSetICU_Trigger>
    114a:	80 91 9f 00 	lds	r24, 0x009F
    114e:	90 91 a0 00 	lds	r25, 0x00A0
    1152:	20 91 9d 00 	lds	r18, 0x009D
    1156:	30 91 9e 00 	lds	r19, 0x009E
    115a:	82 1b       	sub	r24, r18
    115c:	93 0b       	sbc	r25, r19
    115e:	90 93 9a 00 	sts	0x009A, r25
    1162:	80 93 99 00 	sts	0x0099, r24
    1166:	08 95       	ret
    1168:	0e 94 61 01 	call	0x2c2	; 0x2c2 <MTIMERS_u16GetCapturedValue>
    116c:	90 93 a2 00 	sts	0x00A2, r25
    1170:	80 93 a1 00 	sts	0x00A1, r24
    1174:	82 e0       	ldi	r24, 0x02	; 2
    1176:	61 e0       	ldi	r22, 0x01	; 1
    1178:	0e 94 bb 01 	call	0x376	; 0x376 <MTIMERS_vDisableInterrupt>
    117c:	80 91 a1 00 	lds	r24, 0x00A1
    1180:	90 91 a2 00 	lds	r25, 0x00A2
    1184:	20 91 9f 00 	lds	r18, 0x009F
    1188:	30 91 a0 00 	lds	r19, 0x00A0
    118c:	82 1b       	sub	r24, r18
    118e:	93 0b       	sbc	r25, r19
    1190:	90 93 9c 00 	sts	0x009C, r25
    1194:	80 93 9b 00 	sts	0x009B, r24
    1198:	10 92 a3 00 	sts	0x00A3, r1
    119c:	81 e0       	ldi	r24, 0x01	; 1
    119e:	80 93 98 00 	sts	0x0098, r24
    11a2:	08 95       	ret

000011a4 <main>:
    11a4:	cf 93       	push	r28
    11a6:	df 93       	push	r29
    11a8:	81 e0       	ldi	r24, 0x01	; 1
    11aa:	63 e0       	ldi	r22, 0x03	; 3
    11ac:	41 e0       	ldi	r20, 0x01	; 1
    11ae:	0e 94 35 04 	call	0x86a	; 0x86a <MDIO_vSetPinDirection>
    11b2:	83 e0       	ldi	r24, 0x03	; 3
    11b4:	66 e0       	ldi	r22, 0x06	; 6
    11b6:	41 e0       	ldi	r20, 0x01	; 1
    11b8:	0e 94 35 04 	call	0x86a	; 0x86a <MDIO_vSetPinDirection>
    11bc:	82 e0       	ldi	r24, 0x02	; 2
    11be:	61 e0       	ldi	r22, 0x01	; 1
    11c0:	46 e8       	ldi	r20, 0x86	; 134
    11c2:	58 e0       	ldi	r21, 0x08	; 8
    11c4:	0e 94 f1 01 	call	0x3e2	; 0x3e2 <MTIMERS_vSetCallBack>
    11c8:	0e 94 49 00 	call	0x92	; 0x92 <MTIMER0_vInit>
    11cc:	0e 94 62 00 	call	0xc4	; 0xc4 <MTIMER1_vInit>
    11d0:	0e 94 b1 07 	call	0xf62	; 0xf62 <HLCD_vInit>
    11d4:	81 e0       	ldi	r24, 0x01	; 1
    11d6:	6f e7       	ldi	r22, 0x7F	; 127
    11d8:	70 e0       	ldi	r23, 0x00	; 0
    11da:	0e 94 b0 00 	call	0x160	; 0x160 <MTIMERS_vSetCompareValue>
    11de:	81 e0       	ldi	r24, 0x01	; 1
    11e0:	0e 94 c0 00 	call	0x180	; 0x180 <MTIMERS_vStartTimer>
    11e4:	82 e0       	ldi	r24, 0x02	; 2
    11e6:	0e 94 c0 00 	call	0x180	; 0x180 <MTIMERS_vStartTimer>
    11ea:	0e 94 99 03 	call	0x732	; 0x732 <MGIE_vEnableGlobalInterrupt>
    11ee:	c8 ec       	ldi	r28, 0xC8	; 200
    11f0:	d0 e0       	ldi	r29, 0x00	; 0
    11f2:	80 91 98 00 	lds	r24, 0x0098
    11f6:	81 30       	cpi	r24, 0x01	; 1
    11f8:	e1 f7       	brne	.-8      	; 0x11f2 <main+0x4e>
    11fa:	10 92 98 00 	sts	0x0098, r1
    11fe:	0e 94 a6 07 	call	0xf4c	; 0xf4c <HLCD_vClear>
    1202:	88 ee       	ldi	r24, 0xE8	; 232
    1204:	93 e0       	ldi	r25, 0x03	; 3
    1206:	fe 01       	movw	r30, r28
    1208:	31 97       	sbiw	r30, 0x01	; 1
    120a:	f1 f7       	brne	.-4      	; 0x1208 <main+0x64>
    120c:	01 97       	sbiw	r24, 0x01	; 1
    120e:	d9 f7       	brne	.-10     	; 0x1206 <main+0x62>
    1210:	80 91 9b 00 	lds	r24, 0x009B
    1214:	90 91 9c 00 	lds	r25, 0x009C
    1218:	0e 94 52 06 	call	0xca4	; 0xca4 <HLCD_vDispNumber>
    121c:	81 e0       	ldi	r24, 0x01	; 1
    121e:	60 e0       	ldi	r22, 0x00	; 0
    1220:	0e 94 74 07 	call	0xee8	; 0xee8 <HLCD_vGoTo>
    1224:	80 91 99 00 	lds	r24, 0x0099
    1228:	90 91 9a 00 	lds	r25, 0x009A
    122c:	0e 94 52 06 	call	0xca4	; 0xca4 <HLCD_vDispNumber>
    1230:	82 e0       	ldi	r24, 0x02	; 2
    1232:	61 e0       	ldi	r22, 0x01	; 1
    1234:	0e 94 85 01 	call	0x30a	; 0x30a <MTIMERS_vEnableInterrupt>
    1238:	dc cf       	rjmp	.-72     	; 0x11f2 <main+0x4e>

0000123a <__divmodhi4>:
    123a:	97 fb       	bst	r25, 7
    123c:	09 2e       	mov	r0, r25
    123e:	07 26       	eor	r0, r23
    1240:	0a d0       	rcall	.+20     	; 0x1256 <__divmodhi4_neg1>
    1242:	77 fd       	sbrc	r23, 7
    1244:	04 d0       	rcall	.+8      	; 0x124e <__divmodhi4_neg2>
    1246:	0c d0       	rcall	.+24     	; 0x1260 <__udivmodhi4>
    1248:	06 d0       	rcall	.+12     	; 0x1256 <__divmodhi4_neg1>
    124a:	00 20       	and	r0, r0
    124c:	1a f4       	brpl	.+6      	; 0x1254 <__divmodhi4_exit>

0000124e <__divmodhi4_neg2>:
    124e:	70 95       	com	r23
    1250:	61 95       	neg	r22
    1252:	7f 4f       	sbci	r23, 0xFF	; 255

00001254 <__divmodhi4_exit>:
    1254:	08 95       	ret

00001256 <__divmodhi4_neg1>:
    1256:	f6 f7       	brtc	.-4      	; 0x1254 <__divmodhi4_exit>
    1258:	90 95       	com	r25
    125a:	81 95       	neg	r24
    125c:	9f 4f       	sbci	r25, 0xFF	; 255
    125e:	08 95       	ret

00001260 <__udivmodhi4>:
    1260:	aa 1b       	sub	r26, r26
    1262:	bb 1b       	sub	r27, r27
    1264:	51 e1       	ldi	r21, 0x11	; 17
    1266:	07 c0       	rjmp	.+14     	; 0x1276 <__udivmodhi4_ep>

00001268 <__udivmodhi4_loop>:
    1268:	aa 1f       	adc	r26, r26
    126a:	bb 1f       	adc	r27, r27
    126c:	a6 17       	cp	r26, r22
    126e:	b7 07       	cpc	r27, r23
    1270:	10 f0       	brcs	.+4      	; 0x1276 <__udivmodhi4_ep>
    1272:	a6 1b       	sub	r26, r22
    1274:	b7 0b       	sbc	r27, r23

00001276 <__udivmodhi4_ep>:
    1276:	88 1f       	adc	r24, r24
    1278:	99 1f       	adc	r25, r25
    127a:	5a 95       	dec	r21
    127c:	a9 f7       	brne	.-22     	; 0x1268 <__udivmodhi4_loop>
    127e:	80 95       	com	r24
    1280:	90 95       	com	r25
    1282:	bc 01       	movw	r22, r24
    1284:	cd 01       	movw	r24, r26
    1286:	08 95       	ret

00001288 <_exit>:
    1288:	f8 94       	cli

0000128a <__stop_program>:
    128a:	ff cf       	rjmp	.-2      	; 0x128a <__stop_program>
